
bin/soft_int_ARM_gcc_opt.out:     file format elf32-littlearm

Disassembly of section .init:

00008114 <_init>:
    8114:	e92d4010 	push	{r4, lr}
    8118:	eb000012 	bl	8168 <call_gmon_start>
    811c:	e8bd4010 	pop	{r4, lr}
    8120:	e12fff1e 	bx	lr
Disassembly of section .text:

00008130 <_start>:
    8130:	e59fc024 	ldr	ip, [pc, #36]	; 815c <_start+0x2c>
    8134:	e3a0b000 	mov	fp, #0	; 0x0
    8138:	e49d1004 	pop	{r1}		; (ldr r1, [sp], #4)
    813c:	e1a0200d 	mov	r2, sp
    8140:	e52d2004 	push	{r2}		; (str r2, [sp, #-4]!)
    8144:	e52d0004 	push	{r0}		; (str r0, [sp, #-4]!)
    8148:	e59f0010 	ldr	r0, [pc, #16]	; 8160 <_start+0x30>
    814c:	e59f3010 	ldr	r3, [pc, #16]	; 8164 <_start+0x34>
    8150:	e52dc004 	push	{ip}		; (str ip, [sp, #-4]!)
    8154:	eb000182 	bl	8764 <__libc_start_main>
    8158:	eb00035c 	bl	8ed0 <abort>
    815c:	00008dc4 	.word	0x00008dc4
    8160:	00008488 	.word	0x00008488
    8164:	00008e0c 	.word	0x00008e0c

00008168 <call_gmon_start>:
    8168:	e59f301c 	ldr	r3, [pc, #28]	; 818c <call_gmon_start+0x24>
    816c:	e59f201c 	ldr	r2, [pc, #28]	; 8190 <call_gmon_start+0x28>
    8170:	e08f3003 	add	r3, pc, r3
    8174:	e7931002 	ldr	r1, [r3, r2]
    8178:	e3510000 	cmp	r1, #0	; 0x0
    817c:	e92d4010 	push	{r4, lr}
    8180:	1affffff 	bne	8184 <call_gmon_start+0x1c>
    8184:	e8bd4010 	pop	{r4, lr}
    8188:	e12fff1e 	bx	lr
    818c:	0007af2c 	.word	0x0007af2c
    8190:	0000006c 	.word	0x0000006c

00008194 <__do_global_dtors_aux>:
    8194:	e92d4010 	push	{r4, lr}
    8198:	e59f4028 	ldr	r4, [pc, #40]	; 81c8 <__do_global_dtors_aux+0x34>
    819c:	e5d43000 	ldrb	r3, [r4]
    81a0:	e3530000 	cmp	r3, #0	; 0x0
    81a4:	1a000005 	bne	81c0 <__do_global_dtors_aux+0x2c>
    81a8:	e59f301c 	ldr	r3, [pc, #28]	; 81cc <__do_global_dtors_aux+0x38>
    81ac:	e3530000 	cmp	r3, #0	; 0x0
    81b0:	159f0018 	ldrne	r0, [pc, #24]	; 81d0 <__do_global_dtors_aux+0x3c>
    81b4:	1affffff 	bne	81b8 <__do_global_dtors_aux+0x24>
    81b8:	e3a03001 	mov	r3, #1	; 0x1
    81bc:	e5c43000 	strb	r3, [r4]
    81c0:	e8bd4010 	pop	{r4, lr}
    81c4:	e12fff1e 	bx	lr
    81c8:	00083800 	.word	0x00083800
    81cc:	00000000 	.word	0x00000000
    81d0:	0007afd8 	.word	0x0007afd8

000081d4 <frame_dummy>:
    81d4:	e59f3038 	ldr	r3, [pc, #56]	; 8214 <frame_dummy+0x40>
    81d8:	e3530000 	cmp	r3, #0	; 0x0
    81dc:	e92d4010 	push	{r4, lr}
    81e0:	159f0030 	ldrne	r0, [pc, #48]	; 8218 <frame_dummy+0x44>
    81e4:	159f1030 	ldrne	r1, [pc, #48]	; 821c <frame_dummy+0x48>
    81e8:	1affffff 	bne	81ec <frame_dummy+0x18>
    81ec:	e59f002c 	ldr	r0, [pc, #44]	; 8220 <frame_dummy+0x4c>
    81f0:	e5903000 	ldr	r3, [r0]
    81f4:	e3530000 	cmp	r3, #0	; 0x0
    81f8:	0a000003 	beq	820c <frame_dummy+0x38>
    81fc:	e59f3020 	ldr	r3, [pc, #32]	; 8224 <frame_dummy+0x50>
    8200:	e3530000 	cmp	r3, #0	; 0x0
    8204:	11a0e00f 	movne	lr, pc
    8208:	112fff13 	bxne	r3
    820c:	e8bd4010 	pop	{r4, lr}
    8210:	e12fff1e 	bx	lr
    8214:	00000000 	.word	0x00000000
    8218:	0007afd8 	.word	0x0007afd8
    821c:	00083804 	.word	0x00083804
    8220:	00083074 	.word	0x00083074
    8224:	00000000 	.word	0x00000000

00008228 <checkThresholds>:
    8228:	e59f2068 	ldr	r2, [pc, #104]	; 8298 <checkThresholds+0x70>
    822c:	e5923000 	ldr	r3, [r2]
    8230:	e353000f 	cmp	r3, #15	; 0xf
    8234:	d3a03010 	movle	r3, #16	; 0x10
    8238:	d5823000 	strle	r3, [r2]
    823c:	da000002 	ble	824c <checkThresholds+0x24>
    8240:	e35300eb 	cmp	r3, #235	; 0xeb
    8244:	c3a030eb 	movgt	r3, #235	; 0xeb
    8248:	c5823000 	strgt	r3, [r2]
    824c:	e59f2048 	ldr	r2, [pc, #72]	; 829c <checkThresholds+0x74>
    8250:	e5923000 	ldr	r3, [r2]
    8254:	e353000f 	cmp	r3, #15	; 0xf
    8258:	d3a03010 	movle	r3, #16	; 0x10
    825c:	d5823000 	strle	r3, [r2]
    8260:	da000002 	ble	8270 <checkThresholds+0x48>
    8264:	e35300f0 	cmp	r3, #240	; 0xf0
    8268:	c3a030f0 	movgt	r3, #240	; 0xf0
    826c:	c5823000 	strgt	r3, [r2]
    8270:	e59f2028 	ldr	r2, [pc, #40]	; 82a0 <checkThresholds+0x78>
    8274:	e5923000 	ldr	r3, [r2]
    8278:	e353000f 	cmp	r3, #15	; 0xf
    827c:	d3a03010 	movle	r3, #16	; 0x10
    8280:	d5823000 	strle	r3, [r2]
    8284:	d12fff1e 	bxle	lr
    8288:	e35300f0 	cmp	r3, #240	; 0xf0
    828c:	c3a030f0 	movgt	r3, #240	; 0xf0
    8290:	c5823000 	strgt	r3, [r2]
    8294:	e12fff1e 	bx	lr
    8298:	01e2eb18 	.word	0x01e2eb18
    829c:	00673b04 	.word	0x00673b04
    82a0:	00673b0c 	.word	0x00673b0c

000082a4 <writeNextYCbCr>:
    82a4:	e59f3064 	ldr	r3, [pc, #100]	; 8310 <writeNextYCbCr+0x6c>
    82a8:	e59f2064 	ldr	r2, [pc, #100]	; 8314 <writeNextYCbCr+0x70>
    82ac:	e5930000 	ldr	r0, [r3]
    82b0:	e59f3060 	ldr	r3, [pc, #96]	; 8318 <writeNextYCbCr+0x74>
    82b4:	e5921000 	ldr	r1, [r2]
    82b8:	e52d4004 	push	{r4}		; (str r4, [sp, #-4]!)
    82bc:	e5932000 	ldr	r2, [r3]
    82c0:	e59f4054 	ldr	r4, [pc, #84]	; 831c <writeNextYCbCr+0x78>
    82c4:	e2403001 	sub	r3, r0, #1	; 0x1
    82c8:	e3110003 	tst	r1, #3	; 0x3
    82cc:	e7842103 	str	r2, [r4, r3, lsl #2]
    82d0:	1a00000c 	bne	8308 <writeNextYCbCr+0x64>
    82d4:	e59f2044 	ldr	r2, [pc, #68]	; 8320 <writeNextYCbCr+0x7c>
    82d8:	e3530000 	cmp	r3, #0	; 0x0
    82dc:	b2803002 	addlt	r3, r0, #2	; 0x2
    82e0:	e592c000 	ldr	ip, [r2]
    82e4:	e59f2038 	ldr	r2, [pc, #56]	; 8324 <writeNextYCbCr+0x80>
    82e8:	e1a03143 	asr	r3, r3, #2
    82ec:	e283199e 	add	r1, r3, #2588672	; 0x278000
    82f0:	e5920000 	ldr	r0, [r2]
    82f4:	e283397e 	add	r3, r3, #2064384	; 0x1f8000
    82f8:	e2833b09 	add	r3, r3, #9216	; 0x2400
    82fc:	e2811c0d 	add	r1, r1, #3328	; 0xd00
    8300:	e784c103 	str	ip, [r4, r3, lsl #2]
    8304:	e7840101 	str	r0, [r4, r1, lsl #2]
    8308:	e8bd0010 	pop	{r4}
    830c:	e12fff1e 	bx	lr
    8310:	0008381c 	.word	0x0008381c
    8314:	00673b00 	.word	0x00673b00
    8318:	01e2eb18 	.word	0x01e2eb18
    831c:	00673b18 	.word	0x00673b18
    8320:	00673b04 	.word	0x00673b04
    8324:	00673b0c 	.word	0x00673b0c

00008328 <loadNextRGB>:
    8328:	e92d0070 	push	{r4, r5, r6}
    832c:	e59f6044 	ldr	r6, [pc, #68]	; 8378 <loadNextRGB+0x50>
    8330:	e59f2044 	ldr	r2, [pc, #68]	; 837c <loadNextRGB+0x54>
    8334:	e5961000 	ldr	r1, [r6]
    8338:	e3a0397e 	mov	r3, #2064384	; 0x1f8000
    833c:	e7f25001 	ldrb	r5, [r2, r1]!
    8340:	e2833b09 	add	r3, r3, #9216	; 0x2400
    8344:	e7d2c003 	ldrb	ip, [r2, r3]
    8348:	e59f3030 	ldr	r3, [pc, #48]	; 8380 <loadNextRGB+0x58>
    834c:	e28209fd 	add	r0, r2, #4145152	; 0x3f4000
    8350:	e5d04800 	ldrb	r4, [r0, #2048]
    8354:	e5835000 	str	r5, [r3]
    8358:	e59f2024 	ldr	r2, [pc, #36]	; 8384 <loadNextRGB+0x5c>
    835c:	e59f3024 	ldr	r3, [pc, #36]	; 8388 <loadNextRGB+0x60>
    8360:	e2811001 	add	r1, r1, #1	; 0x1
    8364:	e582c000 	str	ip, [r2]
    8368:	e5834000 	str	r4, [r3]
    836c:	e5861000 	str	r1, [r6]
    8370:	e8bd0070 	pop	{r4, r5, r6}
    8374:	e12fff1e 	bx	lr
    8378:	0008381c 	.word	0x0008381c
    837c:	00084f00 	.word	0x00084f00
    8380:	00673b10 	.word	0x00673b10
    8384:	00673b08 	.word	0x00673b08
    8388:	00084efc 	.word	0x00084efc

0000838c <writeFile>:
    838c:	e92d4010 	push	{r4, lr}
    8390:	e28dd4ff 	add	sp, sp, #-16777216	; 0xff000000
    8394:	e28dd60d 	add	sp, sp, #13631488	; 0xd00000
    8398:	e28ddc8a 	add	sp, sp, #35328	; 0x8a00
    839c:	e24dc60d 	sub	ip, sp, #13631488	; 0xd00000
    83a0:	e24ccc8a 	sub	ip, ip, #35328	; 0x8a00
    83a4:	e28cc60d 	add	ip, ip, #13631488	; 0xd00000
    83a8:	e3a019bd 	mov	r1, #3096576	; 0x2f4000
    83ac:	e59fe074 	ldr	lr, [pc, #116]	; 8428 <writeFile+0x9c>
    83b0:	e28ccc8a 	add	ip, ip, #35328	; 0x8a00
    83b4:	e2811c36 	add	r1, r1, #13824	; 0x3600
    83b8:	e3a02000 	mov	r2, #0	; 0x0
    83bc:	e79e3102 	ldr	r3, [lr, r2, lsl #2]
    83c0:	e7cc3002 	strb	r3, [ip, r2]
    83c4:	e2822001 	add	r2, r2, #1	; 0x1
    83c8:	e1520001 	cmp	r2, r1
    83cc:	1afffffa 	bne	83bc <writeFile+0x30>
    83d0:	e59f1054 	ldr	r1, [pc, #84]	; 842c <writeFile+0xa0>
    83d4:	eb00056a 	bl	9984 <_IO_new_fopen>
    83d8:	e2504000 	subs	r4, r0, #0	; 0x0
    83dc:	0a00000e 	beq	841c <writeFile+0x90>
    83e0:	e24d060d 	sub	r0, sp, #13631488	; 0xd00000
    83e4:	e2400c8a 	sub	r0, r0, #35328	; 0x8a00
    83e8:	e280060d 	add	r0, r0, #13631488	; 0xd00000
    83ec:	e3a029bd 	mov	r2, #3096576	; 0x2f4000
    83f0:	e2822c36 	add	r2, r2, #13824	; 0x3600
    83f4:	e3a01001 	mov	r1, #1	; 0x1
    83f8:	e1a03004 	mov	r3, r4
    83fc:	e2800c8a 	add	r0, r0, #35328	; 0x8a00
    8400:	eb0005e0 	bl	9b88 <_IO_fwrite>
    8404:	e1a00004 	mov	r0, r4
    8408:	eb00043f 	bl	950c <_IO_new_fclose>
    840c:	e28ddc76 	add	sp, sp, #30208	; 0x7600
    8410:	e28dd82f 	add	sp, sp, #3080192	; 0x2f0000
    8414:	e8bd4010 	pop	{r4, lr}
    8418:	e12fff1e 	bx	lr
    841c:	e59f000c 	ldr	r0, [pc, #12]	; 8430 <writeFile+0xa4>
    8420:	eb00042a 	bl	94d0 <_IO_printf>
    8424:	eaffffed 	b	83e0 <writeFile+0x54>
    8428:	00673b18 	.word	0x00673b18
    842c:	00065ff4 	.word	0x00065ff4
    8430:	00065ff8 	.word	0x00065ff8

00008434 <loadFile>:
    8434:	e92d4010 	push	{r4, lr}
    8438:	e59f103c 	ldr	r1, [pc, #60]	; 847c <loadFile+0x48>
    843c:	eb000550 	bl	9984 <_IO_new_fopen>
    8440:	e2504000 	subs	r4, r0, #0	; 0x0
    8444:	0a000009 	beq	8470 <loadFile+0x3c>
    8448:	e3a0285e 	mov	r2, #6160384	; 0x5e0000
    844c:	e2822b3b 	add	r2, r2, #60416	; 0xec00
    8450:	e3a01001 	mov	r1, #1	; 0x1
    8454:	e1a03004 	mov	r3, r4
    8458:	e59f0020 	ldr	r0, [pc, #32]	; 8480 <loadFile+0x4c>
    845c:	eb00054a 	bl	998c <_IO_fread>
    8460:	e1a00004 	mov	r0, r4
    8464:	eb000428 	bl	950c <_IO_new_fclose>
    8468:	e8bd4010 	pop	{r4, lr}
    846c:	e12fff1e 	bx	lr
    8470:	e59f000c 	ldr	r0, [pc, #12]	; 8484 <loadFile+0x50>
    8474:	eb000415 	bl	94d0 <_IO_printf>
    8478:	eafffff2 	b	8448 <loadFile+0x14>
    847c:	00066020 	.word	0x00066020
    8480:	00084f00 	.word	0x00084f00
    8484:	00066024 	.word	0x00066024

00008488 <main>:
    8488:	e92d4ff0 	push	{r4, r5, r6, r7, r8, r9, sl, fp, lr}
    848c:	e24dd02c 	sub	sp, sp, #44	; 0x2c
    8490:	e58d100c 	str	r1, [sp, #12]
    8494:	e59f0290 	ldr	r0, [pc, #656]	; 872c <main+0x2a4>
    8498:	e5911004 	ldr	r1, [r1, #4]
    849c:	eb00040b 	bl	94d0 <_IO_printf>
    84a0:	e59d100c 	ldr	r1, [sp, #12]
    84a4:	e5910004 	ldr	r0, [r1, #4]
    84a8:	ebffffe1 	bl	8434 <loadFile>
    84ac:	e3a01000 	mov	r1, #0	; 0x0
    84b0:	e28d0020 	add	r0, sp, #32	; 0x20
    84b4:	eb003a81 	bl	16ec0 <__gettimeofday>
    84b8:	e59f2270 	ldr	r2, [pc, #624]	; 8730 <main+0x2a8>
    84bc:	e5922000 	ldr	r2, [r2]
    84c0:	e3a03e43 	mov	r3, #1072	; 0x430
    84c4:	e58d2014 	str	r2, [sp, #20]
    84c8:	e2833008 	add	r3, r3, #8	; 0x8
    84cc:	e282097e 	add	r0, r2, #2064384	; 0x1f8000
    84d0:	e59f125c 	ldr	r1, [pc, #604]	; 8734 <main+0x2ac>
    84d4:	e59f225c 	ldr	r2, [pc, #604]	; 8738 <main+0x2b0>
    84d8:	e58d3008 	str	r3, [sp, #8]
    84dc:	e59d3014 	ldr	r3, [sp, #20]
    84e0:	e2800b09 	add	r0, r0, #9216	; 0x2400
    84e4:	e591b000 	ldr	fp, [r1]
    84e8:	e5929000 	ldr	r9, [r2]
    84ec:	e58d0004 	str	r0, [sp, #4]
    84f0:	e58d3010 	str	r3, [sp, #16]
    84f4:	e59d0010 	ldr	r0, [sp, #16]
    84f8:	e59f123c 	ldr	r1, [pc, #572]	; 873c <main+0x2b4>
    84fc:	e59f223c 	ldr	r2, [pc, #572]	; 8740 <main+0x2b8>
    8500:	e1a03100 	lsl	r3, r0, #2
    8504:	e081a003 	add	sl, r1, r3
    8508:	e0826000 	add	r6, r2, r0
    850c:	e3a05000 	mov	r5, #0	; 0x0
    8510:	e286397e 	add	r3, r6, #2064384	; 0x1f8000
    8514:	e2833b09 	add	r3, r3, #9216	; 0x2400
    8518:	e5d34000 	ldrb	r4, [r3]
    851c:	e5d67000 	ldrb	r7, [r6]
    8520:	e28639fd 	add	r3, r6, #4145152	; 0x3f4000
    8524:	e2833b02 	add	r3, r3, #2048	; 0x800
    8528:	e5d38000 	ldrb	r8, [r3]
    852c:	e1a0e087 	lsl	lr, r7, #1
    8530:	e1a03184 	lsl	r3, r4, #3
    8534:	e0833004 	add	r3, r3, r4
    8538:	e04e1187 	sub	r1, lr, r7, lsl #3
    853c:	e1a00204 	lsl	r0, r4, #4
    8540:	e1a0c088 	lsl	ip, r8, #1
    8544:	e0631001 	rsb	r1, r3, r1
    8548:	e0400104 	sub	r0, r0, r4, lsl #2
    854c:	e1a02208 	lsl	r2, r8, #4
    8550:	e1a03207 	lsl	r3, r7, #4
    8554:	e06c2002 	rsb	r2, ip, r2
    8558:	e06e3003 	rsb	r3, lr, r3
    855c:	e0600004 	rsb	r0, r0, r4
    8560:	e2811a01 	add	r1, r1, #4096	; 0x1000
    8564:	e0811002 	add	r1, r1, r2
    8568:	e0833000 	add	r3, r3, r0
    856c:	e1a02084 	lsl	r2, r4, #1
    8570:	e2870040 	add	r0, r7, #64	; 0x40
    8574:	e0800002 	add	r0, r0, r2
    8578:	e2833a01 	add	r3, r3, #4096	; 0x1000
    857c:	e08912c1 	add	r1, r9, r1, asr #5
    8580:	e06c3003 	rsb	r3, ip, r3
    8584:	e1a00180 	lsl	r0, r0, #3
    8588:	e08cc008 	add	ip, ip, r8
    858c:	e080000c 	add	r0, r0, ip
    8590:	e0811fa1 	add	r1, r1, r1, lsr #31
    8594:	e08b32c3 	add	r3, fp, r3, asr #5
    8598:	e1a010c1 	asr	r1, r1, #1
    859c:	e1a0e2c0 	asr	lr, r0, #5
    85a0:	e59d0010 	ldr	r0, [sp, #16]
    85a4:	e351000f 	cmp	r1, #15	; 0xf
    85a8:	e0833fa3 	add	r3, r3, r3, lsr #31
    85ac:	e1a030c3 	asr	r3, r3, #1
    85b0:	e0852000 	add	r2, r5, r0
    85b4:	d3a09010 	movle	r9, #16	; 0x10
    85b8:	da000002 	ble	85c8 <main+0x140>
    85bc:	e35100f0 	cmp	r1, #240	; 0xf0
    85c0:	b1a09001 	movlt	r9, r1
    85c4:	a3a090f0 	movge	r9, #240	; 0xf0
    85c8:	e353000f 	cmp	r3, #15	; 0xf
    85cc:	d3a0b010 	movle	fp, #16	; 0x10
    85d0:	da000002 	ble	85e0 <main+0x158>
    85d4:	e35300f0 	cmp	r3, #240	; 0xf0
    85d8:	b1a0b003 	movlt	fp, r3
    85dc:	a3a0b0f0 	movge	fp, #240	; 0xf0
    85e0:	e3150003 	tst	r5, #3	; 0x3
    85e4:	e58ae000 	str	lr, [sl]
    85e8:	e2866001 	add	r6, r6, #1	; 0x1
    85ec:	e2823003 	add	r3, r2, #3	; 0x3
    85f0:	e2855001 	add	r5, r5, #1	; 0x1
    85f4:	e28aa004 	add	sl, sl, #4	; 0x4
    85f8:	1a000009 	bne	8624 <main+0x19c>
    85fc:	e3520000 	cmp	r2, #0	; 0x0
    8600:	a1a03002 	movge	r3, r2
    8604:	e1a03143 	asr	r3, r3, #2
    8608:	e283299e 	add	r2, r3, #2588672	; 0x278000
    860c:	e59f1128 	ldr	r1, [pc, #296]	; 873c <main+0x2b4>
    8610:	e283397e 	add	r3, r3, #2064384	; 0x1f8000
    8614:	e2833b09 	add	r3, r3, #9216	; 0x2400
    8618:	e2822c0d 	add	r2, r2, #3328	; 0xd00
    861c:	e7819103 	str	r9, [r1, r3, lsl #2]
    8620:	e781b102 	str	fp, [r1, r2, lsl #2]
    8624:	e59d2008 	ldr	r2, [sp, #8]
    8628:	e1550002 	cmp	r5, r2
    862c:	1affffb7 	bne	8510 <main+0x88>
    8630:	e59d3010 	ldr	r3, [sp, #16]
    8634:	e59d0004 	ldr	r0, [sp, #4]
    8638:	e0833005 	add	r3, r3, r5
    863c:	e1530000 	cmp	r3, r0
    8640:	e58d3010 	str	r3, [sp, #16]
    8644:	1affffaa 	bne	84f4 <main+0x6c>
    8648:	e59f20f4 	ldr	r2, [pc, #244]	; 8744 <main+0x2bc>
    864c:	e59d1014 	ldr	r1, [sp, #20]
    8650:	e5828000 	str	r8, [r2]
    8654:	e59f30ec 	ldr	r3, [pc, #236]	; 8748 <main+0x2c0>
    8658:	e59f20ec 	ldr	r2, [pc, #236]	; 874c <main+0x2c4>
    865c:	e583e000 	str	lr, [r3]
    8660:	e5827000 	str	r7, [r2]
    8664:	e281c97e 	add	ip, r1, #2064384	; 0x1f8000
    8668:	e59f30e0 	ldr	r3, [pc, #224]	; 8750 <main+0x2c8>
    866c:	e59f20bc 	ldr	r2, [pc, #188]	; 8730 <main+0x2a8>
    8670:	e28ccb09 	add	ip, ip, #9216	; 0x2400
    8674:	e5834000 	str	r4, [r3]
    8678:	e582c000 	str	ip, [r2]
    867c:	e59f30b0 	ldr	r3, [pc, #176]	; 8734 <main+0x2ac>
    8680:	e59f20b0 	ldr	r2, [pc, #176]	; 8738 <main+0x2b0>
    8684:	e583b000 	str	fp, [r3]
    8688:	e5829000 	str	r9, [r2]
    868c:	e59f30c0 	ldr	r3, [pc, #192]	; 8754 <main+0x2cc>
    8690:	e59f20c0 	ldr	r2, [pc, #192]	; 8758 <main+0x2d0>
    8694:	e3a0cd1e 	mov	ip, #1920	; 0x780
    8698:	e583c000 	str	ip, [r3]
    869c:	e5825000 	str	r5, [r2]
    86a0:	e3a01000 	mov	r1, #0	; 0x0
    86a4:	e28d0018 	add	r0, sp, #24	; 0x18
    86a8:	eb003a04 	bl	16ec0 <__gettimeofday>
    86ac:	e59d2018 	ldr	r2, [sp, #24]
    86b0:	e1a03402 	lsl	r3, r2, #8
    86b4:	e0433182 	sub	r3, r3, r2, lsl #3
    86b8:	e1a04303 	lsl	r4, r3, #6
    86bc:	e0634004 	rsb	r4, r3, r4
    86c0:	e28d0020 	add	r0, sp, #32	; 0x20
    86c4:	e8900009 	ldm	r0, {r0, r3}
    86c8:	e0844002 	add	r4, r4, r2
    86cc:	e1a04304 	lsl	r4, r4, #6
    86d0:	e1a01400 	lsl	r1, r0, #8
    86d4:	e0634004 	rsb	r4, r3, r4
    86d8:	e59d301c 	ldr	r3, [sp, #28]
    86dc:	e0411180 	sub	r1, r1, r0, lsl #3
    86e0:	e1a02301 	lsl	r2, r1, #6
    86e4:	e0844003 	add	r4, r4, r3
    86e8:	e59d300c 	ldr	r3, [sp, #12]
    86ec:	e0612002 	rsb	r2, r1, r2
    86f0:	e0822000 	add	r2, r2, r0
    86f4:	e5930008 	ldr	r0, [r3, #8]
    86f8:	e0444302 	sub	r4, r4, r2, lsl #6
    86fc:	ebffff22 	bl	838c <writeFile>
    8700:	e59d000c 	ldr	r0, [sp, #12]
    8704:	e5901008 	ldr	r1, [r0, #8]
    8708:	e59f004c 	ldr	r0, [pc, #76]	; 875c <main+0x2d4>
    870c:	eb00036f 	bl	94d0 <_IO_printf>
    8710:	e1a02004 	mov	r2, r4
    8714:	e3a03000 	mov	r3, #0	; 0x0
    8718:	e59f0040 	ldr	r0, [pc, #64]	; 8760 <main+0x2d8>
    871c:	eb00036b 	bl	94d0 <_IO_printf>
    8720:	e28dd02c 	add	sp, sp, #44	; 0x2c
    8724:	e8bd4ff0 	pop	{r4, r5, r6, r7, r8, r9, sl, fp, lr}
    8728:	e12fff1e 	bx	lr
    872c:	00066048 	.word	0x00066048
    8730:	0008381c 	.word	0x0008381c
    8734:	00673b0c 	.word	0x00673b0c
    8738:	00673b04 	.word	0x00673b04
    873c:	00673b18 	.word	0x00673b18
    8740:	00084f00 	.word	0x00084f00
    8744:	00084efc 	.word	0x00084efc
    8748:	01e2eb18 	.word	0x01e2eb18
    874c:	00673b10 	.word	0x00673b10
    8750:	00673b08 	.word	0x00673b08
    8754:	00673b14 	.word	0x00673b14
    8758:	00673b00 	.word	0x00673b00
    875c:	0006605c 	.word	0x0006605c
    8760:	00066080 	.word	0x00066080

00008764 <__libc_start_main>:
    8764:	e92d4070 	push	{r4, r5, r6, lr}
    8768:	e59fc22c 	ldr	ip, [pc, #556]	; 899c <__libc_start_main+0x238>
    876c:	e24dde13 	sub	sp, sp, #304	; 0x130
    8770:	e35c0000 	cmp	ip, #0	; 0x0
    8774:	e58d2004 	str	r2, [sp, #4]
    8778:	e58d000c 	str	r0, [sp, #12]
    877c:	e58d1008 	str	r1, [sp, #8]
    8780:	e1a04003 	mov	r4, r3
    8784:	e59d6140 	ldr	r6, [sp, #320]
    8788:	e59d5144 	ldr	r5, [sp, #324]
    878c:	01a0200c 	moveq	r2, ip
    8790:	1a000063 	bne	8924 <__libc_start_main+0x1c0>
    8794:	e59d3008 	ldr	r3, [sp, #8]
    8798:	e2831001 	add	r1, r3, #1	; 0x1
    879c:	e59d3004 	ldr	r3, [sp, #4]
    87a0:	e1a01101 	lsl	r1, r1, #2
    87a4:	e0831001 	add	r1, r3, r1
    87a8:	e59f31f0 	ldr	r3, [pc, #496]	; 89a0 <__libc_start_main+0x23c>
    87ac:	e5832000 	str	r2, [r3]
    87b0:	e59f21ec 	ldr	r2, [pc, #492]	; 89a4 <__libc_start_main+0x240>
    87b4:	e59f01ec 	ldr	r0, [pc, #492]	; 89a8 <__libc_start_main+0x244>
    87b8:	e59d3148 	ldr	r3, [sp, #328]
    87bc:	e5821000 	str	r1, [r2]
    87c0:	e5803000 	str	r3, [r0]
    87c4:	e1a00001 	mov	r0, r1
    87c8:	e4903004 	ldr	r3, [r0], #4
    87cc:	e3530000 	cmp	r3, #0	; 0x0
    87d0:	1afffffc 	bne	87c8 <__libc_start_main+0x64>
    87d4:	eb004045 	bl	188f0 <_dl_aux_init>
    87d8:	e59f31c0 	ldr	r3, [pc, #448]	; 89a0 <__libc_start_main+0x23c>
    87dc:	e5932000 	ldr	r2, [r3]
    87e0:	e3520000 	cmp	r2, #0	; 0x0
    87e4:	1a00000e 	bne	8824 <__libc_start_main+0xc0>
    87e8:	eb0042d4 	bl	19340 <_dl_discover_osversion>
    87ec:	e3500000 	cmp	r0, #0	; 0x0
    87f0:	ba000047 	blt	8914 <__libc_start_main+0x1b0>
    87f4:	e59f31b0 	ldr	r3, [pc, #432]	; 89ac <__libc_start_main+0x248>
    87f8:	e5933000 	ldr	r3, [r3]
    87fc:	e3530000 	cmp	r3, #0	; 0x0
    8800:	01a02000 	moveq	r2, r0
    8804:	1a000060 	bne	898c <__libc_start_main+0x228>
    8808:	e59f319c 	ldr	r3, [pc, #412]	; 89ac <__libc_start_main+0x248>
    880c:	e5832000 	str	r2, [r3]
    8810:	e3a03b81 	mov	r3, #132096	; 0x20400
    8814:	e2833f83 	add	r3, r3, #524	; 0x20c
    8818:	e2833001 	add	r3, r3, #1	; 0x1
    881c:	e1530000 	cmp	r3, r0
    8820:	aa000039 	bge	890c <__libc_start_main+0x1a8>
    8824:	eb000163 	bl	8db8 <__pthread_initialize_minimal>
    8828:	e28d1e13 	add	r1, sp, #304	; 0x130
    882c:	e3a00000 	mov	r0, #0	; 0x0
    8830:	e5210004 	str	r0, [r1, #-4]!
    8834:	e3a0300a 	mov	r3, #10	; 0xa
    8838:	e3e02000 	mvn	r2, #0	; 0x0
    883c:	e5c13002 	strb	r3, [r1, #2]
    8840:	e5c12003 	strb	r2, [r1, #3]
    8844:	e59d212c 	ldr	r2, [sp, #300]
    8848:	e59f3160 	ldr	r3, [pc, #352]	; 89b0 <__libc_start_main+0x24c>
    884c:	e1550000 	cmp	r5, r0
    8850:	e5832000 	str	r2, [r3]
    8854:	11a01000 	movne	r1, r0
    8858:	11a02001 	movne	r2, r1
    885c:	11a00005 	movne	r0, r5
    8860:	1b000309 	blne	948c <__cxa_atexit>
    8864:	e59f3138 	ldr	r3, [pc, #312]	; 89a4 <__libc_start_main+0x240>
    8868:	e59d0008 	ldr	r0, [sp, #8]
    886c:	e5932000 	ldr	r2, [r3]
    8870:	e59d1004 	ldr	r1, [sp, #4]
    8874:	eb0042f8 	bl	1945c <__libc_init_first>
    8878:	e3560000 	cmp	r6, #0	; 0x0
    887c:	13a01000 	movne	r1, #0	; 0x0
    8880:	11a00006 	movne	r0, r6
    8884:	11a02001 	movne	r2, r1
    8888:	1b0002ff 	blne	948c <__cxa_atexit>
    888c:	e59f3120 	ldr	r3, [pc, #288]	; 89b4 <__libc_start_main+0x250>
    8890:	e5932000 	ldr	r2, [r3]
    8894:	e3520000 	cmp	r2, #0	; 0x0
    8898:	1a00001f 	bne	891c <__libc_start_main+0x1b8>
    889c:	e3540000 	cmp	r4, #0	; 0x0
    88a0:	0a000005 	beq	88bc <__libc_start_main+0x158>
    88a4:	e59f30f8 	ldr	r3, [pc, #248]	; 89a4 <__libc_start_main+0x240>
    88a8:	e59d0008 	ldr	r0, [sp, #8]
    88ac:	e5932000 	ldr	r2, [r3]
    88b0:	e59d1004 	ldr	r1, [sp, #4]
    88b4:	e1a0e00f 	mov	lr, pc
    88b8:	e12fff14 	bx	r4
    88bc:	e28d0010 	add	r0, sp, #16	; 0x10
    88c0:	eb00017e 	bl	8ec0 <_setjmp>
    88c4:	e3500000 	cmp	r0, #0	; 0x0
    88c8:	1a000019 	bne	8934 <__libc_start_main+0x1d0>
    88cc:	eb000177 	bl	8eb0 <__aeabi_read_tp>
    88d0:	e2401e4a 	sub	r1, r0, #1184	; 0x4a0
    88d4:	e5913060 	ldr	r3, [r1, #96]
    88d8:	e58d3118 	str	r3, [sp, #280]
    88dc:	e5102444 	ldr	r2, [r0, #-1092]
    88e0:	e28d3010 	add	r3, sp, #16	; 0x10
    88e4:	e58d211c 	str	r2, [sp, #284]
    88e8:	e5813060 	str	r3, [r1, #96]
    88ec:	e59f30b0 	ldr	r3, [pc, #176]	; 89a4 <__libc_start_main+0x240>
    88f0:	e59d0008 	ldr	r0, [sp, #8]
    88f4:	e5932000 	ldr	r2, [r3]
    88f8:	e59d1004 	ldr	r1, [sp, #4]
    88fc:	e59d300c 	ldr	r3, [sp, #12]
    8900:	e1a0e00f 	mov	lr, pc
    8904:	e12fff13 	bx	r3
    8908:	eb000219 	bl	9174 <exit>
    890c:	e59f00a4 	ldr	r0, [pc, #164]	; 89b8 <__libc_start_main+0x254>
    8910:	eb000623 	bl	a1a4 <__libc_fatal>
    8914:	e59f00a0 	ldr	r0, [pc, #160]	; 89bc <__libc_start_main+0x258>
    8918:	eb000621 	bl	a1a4 <__libc_fatal>
    891c:	eb00006a 	bl	8acc <__libc_check_standard_fds>
    8920:	eaffffdd 	b	889c <__libc_start_main+0x138>
    8924:	e59c3000 	ldr	r3, [ip]
    8928:	e2732001 	rsbs	r2, r3, #1	; 0x1
    892c:	33a02000 	movcc	r2, #0	; 0x0
    8930:	eaffff97 	b	8794 <__libc_start_main+0x30>
    8934:	eaffffff 	b	8938 <__libc_start_main+0x1d4>
    8938:	e59f6080 	ldr	r6, [pc, #128]	; 89c0 <__libc_start_main+0x25c>
    893c:	e5965000 	ldr	r5, [r6]
    8940:	e1a02006 	mov	r2, r6
    8944:	e2451001 	sub	r1, r5, #1	; 0x1
    8948:	e1a04005 	mov	r4, r5
    894c:	e5923000 	ldr	r3, [r2]
    8950:	e1530004 	cmp	r3, r4
    8954:	1a000005 	bne	8970 <__libc_start_main+0x20c>
    8958:	e1a00004 	mov	r0, r4
    895c:	e3e03a0f 	mvn	r3, #61440	; 0xf000
    8960:	e1a0e00f 	mov	lr, pc
    8964:	e243f03f 	sub	pc, r3, #63	; 0x3f
    8968:	3afffff7 	bcc	894c <__libc_start_main+0x1e8>
    896c:	e1a03004 	mov	r3, r4
    8970:	e1550003 	cmp	r5, r3
    8974:	1afffff0 	bne	893c <__libc_start_main+0x1d8>
    8978:	e3550001 	cmp	r5, #1	; 0x1
    897c:	03a00000 	moveq	r0, #0	; 0x0
    8980:	0affffe0 	beq	8908 <__libc_start_main+0x1a4>
    8984:	e3a00000 	mov	r0, #0	; 0x0
    8988:	eb00397c 	bl	16f80 <__exit_thread>
    898c:	e1530000 	cmp	r3, r0
    8990:	e1a02000 	mov	r2, r0
    8994:	9affff9d 	bls	8810 <__libc_start_main+0xac>
    8998:	eaffff9a 	b	8808 <__libc_start_main+0xa4>
    899c:	00000000 	.word	0x00000000
    89a0:	000835b0 	.word	0x000835b0
    89a4:	000845a4 	.word	0x000845a4
    89a8:	0008307c 	.word	0x0008307c
    89ac:	01e2ebac 	.word	0x01e2ebac
    89b0:	00083078 	.word	0x00083078
    89b4:	00083080 	.word	0x00083080
    89b8:	0006609c 	.word	0x0006609c
    89bc:	000660b4 	.word	0x000660b4
    89c0:	00000000 	.word	0x00000000

000089c4 <check_one_fd>:
    89c4:	e92d40f0 	push	{r4, r5, r6, r7, lr}
    89c8:	e1a07001 	mov	r7, r1
    89cc:	e24dd06c 	sub	sp, sp, #108	; 0x6c
    89d0:	e3a01001 	mov	r1, #1	; 0x1
    89d4:	e1a04000 	mov	r4, r0
    89d8:	eb003a09 	bl	17204 <__libc_fcntl>
    89dc:	e3700001 	cmn	r0, #1	; 0x1
    89e0:	0a000002 	beq	89f0 <check_one_fd+0x2c>
    89e4:	e28dd06c 	add	sp, sp, #108	; 0x6c
    89e8:	e8bd40f0 	pop	{r4, r5, r6, r7, lr}
    89ec:	e12fff1e 	bx	lr
    89f0:	e59f30c4 	ldr	r3, [pc, #196]	; 8abc <check_one_fd+0xf8>
    89f4:	eb00012d 	bl	8eb0 <__aeabi_read_tp>
    89f8:	e79f3003 	ldr	r3, [pc, r3]
    89fc:	e7902003 	ldr	r2, [r0, r3]
    8a00:	e3520009 	cmp	r2, #9	; 0x9
    8a04:	1afffff6 	bne	89e4 <check_one_fd+0x20>
    8a08:	e2073003 	and	r3, r7, #3	; 0x3
    8a0c:	e3530001 	cmp	r3, #1	; 0x1
    8a10:	13a05c01 	movne	r5, #256	; 0x100
    8a14:	03a05f41 	moveq	r5, #260	; 0x104
    8a18:	e1a01007 	mov	r1, r7
    8a1c:	12855003 	addne	r5, r5, #3	; 0x3
    8a20:	13a06000 	movne	r6, #0	; 0x0
    8a24:	159f0094 	ldrne	r0, [pc, #148]	; 8ac0 <check_one_fd+0xfc>
    8a28:	059f0094 	ldreq	r0, [pc, #148]	; 8ac4 <check_one_fd+0x100>
    8a2c:	02855003 	addeq	r5, r5, #3	; 0x3
    8a30:	03a06000 	moveq	r6, #0	; 0x0
    8a34:	e3a02000 	mov	r2, #0	; 0x0
    8a38:	e3a07005 	mov	r7, #5	; 0x5
    8a3c:	ef000000 	svc	0x00000000
    8a40:	e3700a01 	cmn	r0, #4096	; 0x1000
    8a44:	e1a02000 	mov	r2, r0
    8a48:	91a00000 	movls	r0, r0
    8a4c:	8a00000f 	bhi	8a90 <check_one_fd+0xcc>
    8a50:	e1540000 	cmp	r4, r0
    8a54:	1a00000c 	bne	8a8c <check_one_fd+0xc8>
    8a58:	e1a01004 	mov	r1, r4
    8a5c:	e3a00003 	mov	r0, #3	; 0x3
    8a60:	e1a0200d 	mov	r2, sp
    8a64:	eb00394d 	bl	16fa0 <___fxstat64>
    8a68:	e3500000 	cmp	r0, #0	; 0x0
    8a6c:	1a000006 	bne	8a8c <check_one_fd+0xc8>
    8a70:	e59d3010 	ldr	r3, [sp, #16]
    8a74:	e2033a0f 	and	r3, r3, #61440	; 0xf000
    8a78:	e3530a02 	cmp	r3, #8192	; 0x2000
    8a7c:	1a000002 	bne	8a8c <check_one_fd+0xc8>
    8a80:	e59d3020 	ldr	r3, [sp, #32]
    8a84:	e1530005 	cmp	r3, r5
    8a88:	0a000007 	beq	8aac <check_one_fd+0xe8>
    8a8c:	eafffffe 	b	8a8c <check_one_fd+0xc8>
    8a90:	e59f3030 	ldr	r3, [pc, #48]	; 8ac8 <check_one_fd+0x104>
    8a94:	eb000105 	bl	8eb0 <__aeabi_read_tp>
    8a98:	e79f3003 	ldr	r3, [pc, r3]
    8a9c:	e2622000 	rsb	r2, r2, #0	; 0x0
    8aa0:	e7802003 	str	r2, [r0, r3]
    8aa4:	e3e00000 	mvn	r0, #0	; 0x0
    8aa8:	eaffffe8 	b	8a50 <check_one_fd+0x8c>
    8aac:	e59d3024 	ldr	r3, [sp, #36]
    8ab0:	e1530006 	cmp	r3, r6
    8ab4:	1afffff4 	bne	8a8c <check_one_fd+0xc8>
    8ab8:	eaffffc9 	b	89e4 <check_one_fd+0x20>
    8abc:	0007a6e4 	.word	0x0007a6e4
    8ac0:	000660dc 	.word	0x000660dc
    8ac4:	000660e8 	.word	0x000660e8
    8ac8:	0007a644 	.word	0x0007a644

00008acc <__libc_check_standard_fds>:
    8acc:	e92d4010 	push	{r4, lr}
    8ad0:	e3a04902 	mov	r4, #32768	; 0x8000
    8ad4:	e2841001 	add	r1, r4, #1	; 0x1
    8ad8:	e3a00000 	mov	r0, #0	; 0x0
    8adc:	ebffffb8 	bl	89c4 <check_one_fd>
    8ae0:	e1a01004 	mov	r1, r4
    8ae4:	e3a00001 	mov	r0, #1	; 0x1
    8ae8:	ebffffb5 	bl	89c4 <check_one_fd>
    8aec:	e1a01004 	mov	r1, r4
    8af0:	e3a00002 	mov	r0, #2	; 0x2
    8af4:	e8bd4010 	pop	{r4, lr}
    8af8:	eaffffb1 	b	89c4 <check_one_fd>

00008afc <_dl_tls_setup>:
    8afc:	e59fc058 	ldr	ip, [pc, #88]	; 8b5c <_dl_tls_setup+0x60>
    8b00:	e59c2000 	ldr	r2, [ip]
    8b04:	e92d0030 	push	{r4, r5}
    8b08:	e59f3050 	ldr	r3, [pc, #80]	; 8b60 <_dl_tls_setup+0x64>
    8b0c:	e59f4050 	ldr	r4, [pc, #80]	; 8b64 <_dl_tls_setup+0x68>
    8b10:	e282200f 	add	r2, r2, #15	; 0xf
    8b14:	e3c2200f 	bic	r2, r2, #15	; 0xf
    8b18:	e5834000 	str	r4, [r3]
    8b1c:	e59f3044 	ldr	r3, [pc, #68]	; 8b68 <_dl_tls_setup+0x6c>
    8b20:	e58c2000 	str	r2, [ip]
    8b24:	e3a01010 	mov	r1, #16	; 0x10
    8b28:	e59f203c 	ldr	r2, [pc, #60]	; 8b6c <_dl_tls_setup+0x70>
    8b2c:	e3a05001 	mov	r5, #1	; 0x1
    8b30:	e5831000 	str	r1, [r3]
    8b34:	e3a03040 	mov	r3, #64	; 0x40
    8b38:	e5825000 	str	r5, [r2]
    8b3c:	e5843000 	str	r3, [r4]
    8b40:	e59f2028 	ldr	r2, [pc, #40]	; 8b70 <_dl_tls_setup+0x74>
    8b44:	e59f3028 	ldr	r3, [pc, #40]	; 8b74 <_dl_tls_setup+0x78>
    8b48:	e3a00000 	mov	r0, #0	; 0x0
    8b4c:	e5825000 	str	r5, [r2]
    8b50:	e5830000 	str	r0, [r3]
    8b54:	e8bd0030 	pop	{r4, r5}
    8b58:	e12fff1e 	bx	lr
    8b5c:	00083120 	.word	0x00083120
    8b60:	01e2eb28 	.word	0x01e2eb28
    8b64:	00083820 	.word	0x00083820
    8b68:	01e2eb20 	.word	0x01e2eb20
    8b6c:	01e2eb34 	.word	0x01e2eb34
    8b70:	01e2eb24 	.word	0x01e2eb24
    8b74:	01e2eb1c 	.word	0x01e2eb1c

00008b78 <__tls_get_addr>:
    8b78:	e52de004 	push	{lr}		; (str lr, [sp, #-4]!)
    8b7c:	e1a01000 	mov	r1, r0
    8b80:	eb0000ca 	bl	8eb0 <__aeabi_read_tp>
    8b84:	e5903000 	ldr	r3, [r0]
    8b88:	e5912004 	ldr	r2, [r1, #4]
    8b8c:	e5930008 	ldr	r0, [r3, #8]
    8b90:	e0800002 	add	r0, r0, r2
    8b94:	e49de004 	pop	{lr}		; (ldr lr, [sp], #4)
    8b98:	e12fff1e 	bx	lr

00008b9c <__libc_setup_tls>:
    8b9c:	e92d4ff0 	push	{r4, r5, r6, r7, r8, r9, sl, fp, lr}
    8ba0:	e59f31e8 	ldr	r3, [pc, #488]	; 8d90 <__libc_setup_tls+0x1f4>
    8ba4:	e593c000 	ldr	ip, [r3]
    8ba8:	e35c0000 	cmp	ip, #0	; 0x0
    8bac:	e24dd00c 	sub	sp, sp, #12	; 0xc
    8bb0:	e1a0e000 	mov	lr, r0
    8bb4:	0a00001d 	beq	8c30 <__libc_setup_tls+0x94>
    8bb8:	e59f21d4 	ldr	r2, [pc, #468]	; 8d94 <__libc_setup_tls+0x1f8>
    8bbc:	e5923000 	ldr	r3, [r2]
    8bc0:	e1a03283 	lsl	r3, r3, #5
    8bc4:	e08c2003 	add	r2, ip, r3
    8bc8:	e15c0002 	cmp	ip, r2
    8bcc:	3a000003 	bcc	8be0 <__libc_setup_tls+0x44>
    8bd0:	ea000016 	b	8c30 <__libc_setup_tls+0x94>
    8bd4:	e28cc020 	add	ip, ip, #32	; 0x20
    8bd8:	e15c0002 	cmp	ip, r2
    8bdc:	2a000013 	bcs	8c30 <__libc_setup_tls+0x94>
    8be0:	e59c3000 	ldr	r3, [ip]
    8be4:	e3530007 	cmp	r3, #7	; 0x7
    8be8:	1afffff9 	bne	8bd4 <__libc_setup_tls+0x38>
    8bec:	e59c401c 	ldr	r4, [ip, #28]
    8bf0:	e28c2010 	add	r2, ip, #16	; 0x10
    8bf4:	e8920044 	ldm	r2, {r2, r6}
    8bf8:	e59cc008 	ldr	ip, [ip, #8]
    8bfc:	e1510004 	cmp	r1, r4
    8c00:	21a09001 	movcs	r9, r1
    8c04:	31a09004 	movcc	r9, r4
    8c08:	e3540000 	cmp	r4, #0	; 0x0
    8c0c:	e88d1004 	stm	sp, {r2, ip}
    8c10:	0a00000a 	beq	8c40 <__libc_setup_tls+0xa4>
    8c14:	e2440001 	sub	r0, r4, #1	; 0x1
    8c18:	e080000e 	add	r0, r0, lr
    8c1c:	e1a01004 	mov	r1, r4
    8c20:	eb016848 	bl	62d48 <__aeabi_uidiv>
    8c24:	e1a08004 	mov	r8, r4
    8c28:	e1a0e000 	mov	lr, r0
    8c2c:	ea000005 	b	8c48 <__libc_setup_tls+0xac>
    8c30:	e3a06000 	mov	r6, #0	; 0x0
    8c34:	e58d6000 	str	r6, [sp]
    8c38:	e58d6004 	str	r6, [sp, #4]
    8c3c:	e1a09001 	mov	r9, r1
    8c40:	e3a04001 	mov	r4, #1	; 0x1
    8c44:	e3a08000 	mov	r8, #0	; 0x0
    8c48:	e00a0e94 	mul	sl, r4, lr
    8c4c:	e59f3144 	ldr	r3, [pc, #324]	; 8d98 <__libc_setup_tls+0x1fc>
    8c50:	e5930000 	ldr	r0, [r3]
    8c54:	e2800e4a 	add	r0, r0, #1184	; 0x4a0
    8c58:	e0800006 	add	r0, r0, r6
    8c5c:	e0800009 	add	r0, r0, r9
    8c60:	e080000a 	add	r0, r0, sl
    8c64:	eb0039a2 	bl	172f4 <__sbrk>
    8c68:	e2493001 	sub	r3, r9, #1	; 0x1
    8c6c:	e2804e4a 	add	r4, r0, #1184	; 0x4a0
    8c70:	e2692000 	rsb	r2, r9, #0	; 0x0
    8c74:	e0844003 	add	r4, r4, r3
    8c78:	e0044002 	and	r4, r4, r2
    8c7c:	e59f5118 	ldr	r5, [pc, #280]	; 8d9c <__libc_setup_tls+0x200>
    8c80:	e084c00a 	add	ip, r4, sl
    8c84:	e3a0303e 	mov	r3, #62	; 0x3e
    8c88:	e1a0000c 	mov	r0, ip
    8c8c:	e3a0b001 	mov	fp, #1	; 0x1
    8c90:	e59d1004 	ldr	r1, [sp, #4]
    8c94:	e59d2000 	ldr	r2, [sp]
    8c98:	e5853208 	str	r3, [r5, #520]
    8c9c:	e585c218 	str	ip, [r5, #536]
    8ca0:	e585a63c 	str	sl, [r5, #1596]
    8ca4:	e5c5b21c 	strb	fp, [r5, #540]
    8ca8:	e3a0780f 	mov	r7, #983040	; 0xf0000
    8cac:	eb0035a3 	bl	16340 <memcpy>
    8cb0:	e2853e21 	add	r3, r5, #528	; 0x210
    8cb4:	e5843000 	str	r3, [r4]
    8cb8:	e1a00004 	mov	r0, r4
    8cbc:	e2877005 	add	r7, r7, #5	; 0x5
    8cc0:	ef000000 	svc	0x00000000
    8cc4:	e3700a01 	cmn	r0, #4096	; 0x1000
    8cc8:	859f00d0 	ldrhi	r0, [pc, #208]	; 8da0 <__libc_setup_tls+0x204>
    8ccc:	8b000534 	blhi	a1a4 <__libc_fatal>
    8cd0:	e2853b01 	add	r3, r5, #1024	; 0x400
    8cd4:	e2833008 	add	r3, r3, #8	; 0x8
    8cd8:	e5853014 	str	r3, [r5, #20]
    8cdc:	e59d3004 	ldr	r3, [sp, #4]
    8ce0:	e5d5259c 	ldrb	r2, [r5, #1436]
    8ce4:	e5853628 	str	r3, [r5, #1576]
    8ce8:	e59d3000 	ldr	r3, [sp]
    8cec:	e3c22003 	bic	r2, r2, #3	; 0x3
    8cf0:	e585362c 	str	r3, [r5, #1580]
    8cf4:	e3a03040 	mov	r3, #64	; 0x40
    8cf8:	e5c5259c 	strb	r2, [r5, #1436]
    8cfc:	e5853000 	str	r3, [r5]
    8d00:	e59f209c 	ldr	r2, [pc, #156]	; 8da4 <__libc_setup_tls+0x208>
    8d04:	e59f309c 	ldr	r3, [pc, #156]	; 8da8 <__libc_setup_tls+0x20c>
    8d08:	e3580000 	cmp	r8, #0	; 0x0
    8d0c:	e5858634 	str	r8, [r5, #1588]
    8d10:	e582b000 	str	fp, [r2]
    8d14:	e5835000 	str	r5, [r3]
    8d18:	e5856630 	str	r6, [r5, #1584]
    8d1c:	e585b640 	str	fp, [r5, #1600]
    8d20:	01a0800b 	moveq	r8, fp
    8d24:	1a000013 	bne	8d78 <__libc_setup_tls+0x1dc>
    8d28:	e021a698 	mla	r1, r8, r6, sl
    8d2c:	e59f2064 	ldr	r2, [pc, #100]	; 8d98 <__libc_setup_tls+0x1fc>
    8d30:	e5923000 	ldr	r3, [r2]
    8d34:	e283300f 	add	r3, r3, #15	; 0xf
    8d38:	e0833001 	add	r3, r3, r1
    8d3c:	e3c3300f 	bic	r3, r3, #15	; 0xf
    8d40:	e5823000 	str	r3, [r2]
    8d44:	e59f3060 	ldr	r3, [pc, #96]	; 8dac <__libc_setup_tls+0x210>
    8d48:	e59f2060 	ldr	r2, [pc, #96]	; 8db0 <__libc_setup_tls+0x214>
    8d4c:	e3590010 	cmp	r9, #16	; 0x10
    8d50:	21a00009 	movcs	r0, r9
    8d54:	33a00010 	movcc	r0, #16	; 0x10
    8d58:	e5830000 	str	r0, [r3]
    8d5c:	e59f3050 	ldr	r3, [pc, #80]	; 8db4 <__libc_setup_tls+0x218>
    8d60:	e5821000 	str	r1, [r2]
    8d64:	e3a02001 	mov	r2, #1	; 0x1
    8d68:	e5832000 	str	r2, [r3]
    8d6c:	e28dd00c 	add	sp, sp, #12	; 0xc
    8d70:	e8bd4ff0 	pop	{r4, r5, r6, r7, r8, r9, sl, fp, lr}
    8d74:	e12fff1e 	bx	lr
    8d78:	e0860008 	add	r0, r6, r8
    8d7c:	e2400001 	sub	r0, r0, #1	; 0x1
    8d80:	e1a01008 	mov	r1, r8
    8d84:	eb0167ef 	bl	62d48 <__aeabi_uidiv>
    8d88:	e1a06000 	mov	r6, r0
    8d8c:	eaffffe5 	b	8d28 <__libc_setup_tls+0x18c>
    8d90:	01e2eb7c 	.word	0x01e2eb7c
    8d94:	01e2eb9c 	.word	0x01e2eb9c
    8d98:	00083120 	.word	0x00083120
    8d9c:	00083820 	.word	0x00083820
    8da0:	000660f4 	.word	0x000660f4
    8da4:	01e2eb24 	.word	0x01e2eb24
    8da8:	01e2eb28 	.word	0x01e2eb28
    8dac:	01e2eb20 	.word	0x01e2eb20
    8db0:	01e2eb1c 	.word	0x01e2eb1c
    8db4:	01e2eb34 	.word	0x01e2eb34

00008db8 <__pthread_initialize_minimal>:
    8db8:	e3a00008 	mov	r0, #8	; 0x8
    8dbc:	e3a01010 	mov	r1, #16	; 0x10
    8dc0:	eaffff75 	b	8b9c <__libc_setup_tls>

00008dc4 <__libc_csu_fini>:
    8dc4:	e59f2038 	ldr	r2, [pc, #56]	; 8e04 <__libc_csu_fini+0x40>
    8dc8:	e59f3038 	ldr	r3, [pc, #56]	; 8e08 <__libc_csu_fini+0x44>
    8dcc:	e0623003 	rsb	r3, r2, r3
    8dd0:	e92d4070 	push	{r4, r5, r6, lr}
    8dd4:	e1b04143 	asrs	r4, r3, #2
    8dd8:	0a000006 	beq	8df8 <__libc_csu_fini+0x34>
    8ddc:	e1a03104 	lsl	r3, r4, #2
    8de0:	e0825003 	add	r5, r2, r3
    8de4:	e5353004 	ldr	r3, [r5, #-4]!
    8de8:	e1a0e00f 	mov	lr, pc
    8dec:	e12fff13 	bx	r3
    8df0:	e2544001 	subs	r4, r4, #1	; 0x1
    8df4:	1afffffa 	bne	8de4 <__libc_csu_fini+0x20>
    8df8:	eb017479 	bl	65fe4 <_fini>
    8dfc:	e8bd4070 	pop	{r4, r5, r6, lr}
    8e00:	e12fff1e 	bx	lr
    8e04:	0008306c 	.word	0x0008306c
    8e08:	00083074 	.word	0x00083074

00008e0c <__libc_csu_init>:
    8e0c:	e92d47f0 	push	{r4, r5, r6, r7, r8, r9, sl, lr}
    8e10:	e59f3088 	ldr	r3, [pc, #136]	; 8ea0 <__libc_csu_init+0x94>
    8e14:	e59fa088 	ldr	sl, [pc, #136]	; 8ea4 <__libc_csu_init+0x98>
    8e18:	e06a3003 	rsb	r3, sl, r3
    8e1c:	e1b05143 	asrs	r5, r3, #2
    8e20:	e1a08000 	mov	r8, r0
    8e24:	e1a07001 	mov	r7, r1
    8e28:	e1a06002 	mov	r6, r2
    8e2c:	0a000009 	beq	8e58 <__libc_csu_init+0x4c>
    8e30:	e3a04000 	mov	r4, #0	; 0x0
    8e34:	e1a00008 	mov	r0, r8
    8e38:	e1a01007 	mov	r1, r7
    8e3c:	e1a02006 	mov	r2, r6
    8e40:	e79ac104 	ldr	ip, [sl, r4, lsl #2]
    8e44:	e1a0e00f 	mov	lr, pc
    8e48:	e12fff1c 	bx	ip
    8e4c:	e2844001 	add	r4, r4, #1	; 0x1
    8e50:	e1540005 	cmp	r4, r5
    8e54:	3afffff6 	bcc	8e34 <__libc_csu_init+0x28>
    8e58:	ebfffcad 	bl	8114 <_init>
    8e5c:	e59fa044 	ldr	sl, [pc, #68]	; 8ea8 <__libc_csu_init+0x9c>
    8e60:	e59f3044 	ldr	r3, [pc, #68]	; 8eac <__libc_csu_init+0xa0>
    8e64:	e06a3003 	rsb	r3, sl, r3
    8e68:	e1b05143 	asrs	r5, r3, #2
    8e6c:	0a000009 	beq	8e98 <__libc_csu_init+0x8c>
    8e70:	e3a04000 	mov	r4, #0	; 0x0
    8e74:	e1a00008 	mov	r0, r8
    8e78:	e1a01007 	mov	r1, r7
    8e7c:	e1a02006 	mov	r2, r6
    8e80:	e79ac104 	ldr	ip, [sl, r4, lsl #2]
    8e84:	e1a0e00f 	mov	lr, pc
    8e88:	e12fff1c 	bx	ip
    8e8c:	e2844001 	add	r4, r4, #1	; 0x1
    8e90:	e1540005 	cmp	r4, r5
    8e94:	3afffff6 	bcc	8e74 <__libc_csu_init+0x68>
    8e98:	e8bd47f0 	pop	{r4, r5, r6, r7, r8, r9, sl, lr}
    8e9c:	e12fff1e 	bx	lr
    8ea0:	00083068 	.word	0x00083068
    8ea4:	00083068 	.word	0x00083068
    8ea8:	00083068 	.word	0x00083068
    8eac:	0008306c 	.word	0x0008306c

00008eb0 <__aeabi_read_tp>:
    8eb0:	e3e00a0f 	mvn	r0, #61440	; 0xf000
    8eb4:	e240f01f 	sub	pc, r0, #31	; 0x1f
    8eb8:	e1a00000 	nop			(mov r0,r0)
    8ebc:	e1a00000 	nop			(mov r0,r0)

00008ec0 <_setjmp>:
    8ec0:	e3a01000 	mov	r1, #0	; 0x0
    8ec4:	ea007ce5 	b	28260 <__sigsetjmp>
    8ec8:	e1a00000 	nop			(mov r0,r0)
    8ecc:	e1a00000 	nop			(mov r0,r0)

00008ed0 <abort>:
    8ed0:	e59f6298 	ldr	r6, [pc, #664]	; 9170 <abort+0x2a0>
    8ed4:	ebfffff5 	bl	8eb0 <__aeabi_read_tp>
    8ed8:	e5963008 	ldr	r3, [r6, #8]
    8edc:	e2408e4a 	sub	r8, r0, #1184	; 0x4a0
    8ee0:	e1530008 	cmp	r3, r8
    8ee4:	e24dde11 	sub	sp, sp, #272	; 0x110
    8ee8:	e1a0a000 	mov	sl, r0
    8eec:	0a00000e 	beq	8f2c <abort+0x5c>
    8ef0:	e3a01001 	mov	r1, #1	; 0x1
    8ef4:	e1a02006 	mov	r2, r6
    8ef8:	e3a04000 	mov	r4, #0	; 0x0
    8efc:	e5923000 	ldr	r3, [r2]
    8f00:	e1530004 	cmp	r3, r4
    8f04:	1a000005 	bne	8f20 <abort+0x50>
    8f08:	e1a00004 	mov	r0, r4
    8f0c:	e3e03a0f 	mvn	r3, #61440	; 0xf000
    8f10:	e1a0e00f 	mov	lr, pc
    8f14:	e243f03f 	sub	pc, r3, #63	; 0x3f
    8f18:	3afffff7 	bcc	8efc <abort+0x2c>
    8f1c:	e1a03004 	mov	r3, r4
    8f20:	e1530004 	cmp	r3, r4
    8f24:	1a000088 	bne	914c <abort+0x27c>
    8f28:	e5868008 	str	r8, [r6, #8]
    8f2c:	e5963004 	ldr	r3, [r6, #4]
    8f30:	e596700c 	ldr	r7, [r6, #12]
    8f34:	e2833001 	add	r3, r3, #1	; 0x1
    8f38:	e3570000 	cmp	r7, #0	; 0x0
    8f3c:	e5863004 	str	r3, [r6, #4]
    8f40:	0a000071 	beq	910c <abort+0x23c>
    8f44:	e596300c 	ldr	r3, [r6, #12]
    8f48:	e3530001 	cmp	r3, #1	; 0x1
    8f4c:	0a000081 	beq	9158 <abort+0x288>
    8f50:	e596300c 	ldr	r3, [r6, #12]
    8f54:	e3530002 	cmp	r3, #2	; 0x2
    8f58:	e59f1210 	ldr	r1, [pc, #528]	; 9170 <abort+0x2a0>
    8f5c:	0a00001c 	beq	8fd4 <abort+0x104>
    8f60:	e3530003 	cmp	r3, #3	; 0x3
    8f64:	0a000052 	beq	90b4 <abort+0x1e4>
    8f68:	e596300c 	ldr	r3, [r6, #12]
    8f6c:	e3530004 	cmp	r3, #4	; 0x4
    8f70:	0a000012 	beq	8fc0 <abort+0xf0>
    8f74:	e596300c 	ldr	r3, [r6, #12]
    8f78:	e3530005 	cmp	r3, #5	; 0x5
    8f7c:	0a000009 	beq	8fa8 <abort+0xd8>
    8f80:	e596300c 	ldr	r3, [r6, #12]
    8f84:	e3530006 	cmp	r3, #6	; 0x6
    8f88:	0a000002 	beq	8f98 <abort+0xc8>
    8f8c:	e3530007 	cmp	r3, #7	; 0x7
    8f90:	0a000000 	beq	8f98 <abort+0xc8>
    8f94:	eafffffe 	b	8f94 <abort+0xc4>
    8f98:	e3a03008 	mov	r3, #8	; 0x8
    8f9c:	e3a0007f 	mov	r0, #127	; 0x7f
    8fa0:	e586300c 	str	r3, [r6, #12]
    8fa4:	eb0037cd 	bl	16ee0 <_exit>
    8fa8:	e59f31c0 	ldr	r3, [pc, #448]	; 9170 <abort+0x2a0>
    8fac:	e3a02006 	mov	r2, #6	; 0x6
    8fb0:	e1a00002 	mov	r0, r2
    8fb4:	e583200c 	str	r2, [r3, #12]
    8fb8:	eb007ccd 	bl	282f4 <raise>
    8fbc:	eaffffef 	b	8f80 <abort+0xb0>
    8fc0:	e59f31a8 	ldr	r3, [pc, #424]	; 9170 <abort+0x2a0>
    8fc4:	e3a02005 	mov	r2, #5	; 0x5
    8fc8:	e583200c 	str	r2, [r3, #12]
    8fcc:	eb00037e 	bl	9dcc <__fcloseall>
    8fd0:	eaffffe7 	b	8f74 <abort+0xa4>
    8fd4:	e5913004 	ldr	r3, [r1, #4]
    8fd8:	e2432001 	sub	r2, r3, #1	; 0x1
    8fdc:	e3520000 	cmp	r2, #0	; 0x0
    8fe0:	e3a03000 	mov	r3, #0	; 0x0
    8fe4:	e581300c 	str	r3, [r1, #12]
    8fe8:	e5812004 	str	r2, [r1, #4]
    8fec:	1a000018 	bne	9054 <abort+0x184>
    8ff0:	e5812008 	str	r2, [r1, #8]
    8ff4:	e5965000 	ldr	r5, [r6]
    8ff8:	e3a01000 	mov	r1, #0	; 0x0
    8ffc:	e59f216c 	ldr	r2, [pc, #364]	; 9170 <abort+0x2a0>
    9000:	e1a04005 	mov	r4, r5
    9004:	e5923000 	ldr	r3, [r2]
    9008:	e1530004 	cmp	r3, r4
    900c:	1a000005 	bne	9028 <abort+0x158>
    9010:	e1a00004 	mov	r0, r4
    9014:	e3e03a0f 	mvn	r3, #61440	; 0xf000
    9018:	e1a0e00f 	mov	lr, pc
    901c:	e243f03f 	sub	pc, r3, #63	; 0x3f
    9020:	3afffff7 	bcc	9004 <abort+0x134>
    9024:	e1a03004 	mov	r3, r4
    9028:	e1550003 	cmp	r5, r3
    902c:	1afffff0 	bne	8ff4 <abort+0x124>
    9030:	e3550001 	cmp	r5, #1	; 0x1
    9034:	da000006 	ble	9054 <abort+0x184>
    9038:	e51a2498 	ldr	r2, [sl, #-1176]
    903c:	e1a03001 	mov	r3, r1
    9040:	e59f0128 	ldr	r0, [pc, #296]	; 9170 <abort+0x2a0>
    9044:	e3821001 	orr	r1, r2, #1	; 0x1
    9048:	e3a070f0 	mov	r7, #240	; 0xf0
    904c:	e3a02001 	mov	r2, #1	; 0x1
    9050:	ef000000 	svc	0x00000000
    9054:	e3a00006 	mov	r0, #6	; 0x6
    9058:	eb007ca5 	bl	282f4 <raise>
    905c:	e5963008 	ldr	r3, [r6, #8]
    9060:	e1580003 	cmp	r8, r3
    9064:	0a00000f 	beq	90a8 <abort+0x1d8>
    9068:	e3a01001 	mov	r1, #1	; 0x1
    906c:	e59f20fc 	ldr	r2, [pc, #252]	; 9170 <abort+0x2a0>
    9070:	e3a04000 	mov	r4, #0	; 0x0
    9074:	e5923000 	ldr	r3, [r2]
    9078:	e1530004 	cmp	r3, r4
    907c:	1a000005 	bne	9098 <abort+0x1c8>
    9080:	e1a00004 	mov	r0, r4
    9084:	e3e03a0f 	mvn	r3, #61440	; 0xf000
    9088:	e1a0e00f 	mov	lr, pc
    908c:	e243f03f 	sub	pc, r3, #63	; 0x3f
    9090:	3afffff7 	bcc	9074 <abort+0x1a4>
    9094:	e1a03004 	mov	r3, r4
    9098:	e1530004 	cmp	r3, r4
    909c:	11a00002 	movne	r0, r2
    90a0:	1b003bce 	blne	17fe0 <__lll_lock_wait_private>
    90a4:	e5868008 	str	r8, [r6, #8]
    90a8:	e5963004 	ldr	r3, [r6, #4]
    90ac:	e2833001 	add	r3, r3, #1	; 0x1
    90b0:	e5863004 	str	r3, [r6, #4]
    90b4:	e28d4004 	add	r4, sp, #4	; 0x4
    90b8:	e3a03004 	mov	r3, #4	; 0x4
    90bc:	e3a01000 	mov	r1, #0	; 0x0
    90c0:	e3a0208c 	mov	r2, #140	; 0x8c
    90c4:	e1a00004 	mov	r0, r4
    90c8:	e586300c 	str	r3, [r6, #12]
    90cc:	eb003447 	bl	161f0 <memset>
    90d0:	e1a03004 	mov	r3, r4
    90d4:	e24d107c 	sub	r1, sp, #124	; 0x7c
    90d8:	e3e02000 	mvn	r2, #0	; 0x0
    90dc:	e5832080 	str	r2, [r3, #128]
    90e0:	e2433004 	sub	r3, r3, #4	; 0x4
    90e4:	e1530001 	cmp	r3, r1
    90e8:	1afffffb 	bne	90dc <abort+0x20c>
    90ec:	e3a03000 	mov	r3, #0	; 0x0
    90f0:	e1a01004 	mov	r1, r4
    90f4:	e1a02003 	mov	r2, r3
    90f8:	e3a00006 	mov	r0, #6	; 0x6
    90fc:	e58d3088 	str	r3, [sp, #136]
    9100:	e58d3004 	str	r3, [sp, #4]
    9104:	eb007d12 	bl	28554 <__sigaction>
    9108:	eaffff96 	b	8f68 <abort+0x98>
    910c:	e59f305c 	ldr	r3, [pc, #92]	; 9170 <abort+0x2a0>
    9110:	e28d5090 	add	r5, sp, #144	; 0x90
    9114:	e3a04001 	mov	r4, #1	; 0x1
    9118:	e1a01007 	mov	r1, r7
    911c:	e583400c 	str	r4, [r3, #12]
    9120:	e3a02080 	mov	r2, #128	; 0x80
    9124:	e1a00005 	mov	r0, r5
    9128:	eb003430 	bl	161f0 <memset>
    912c:	e59d3090 	ldr	r3, [sp, #144]
    9130:	e1a00004 	mov	r0, r4
    9134:	e3833020 	orr	r3, r3, #32	; 0x20
    9138:	e1a01005 	mov	r1, r5
    913c:	e1a02007 	mov	r2, r7
    9140:	e58d3090 	str	r3, [sp, #144]
    9144:	eb007d11 	bl	28590 <__sigprocmask>
    9148:	eaffff7d 	b	8f44 <abort+0x74>
    914c:	e1a00006 	mov	r0, r6
    9150:	eb003ba2 	bl	17fe0 <__lll_lock_wait_private>
    9154:	eaffff73 	b	8f28 <abort+0x58>
    9158:	e59f3010 	ldr	r3, [pc, #16]	; 9170 <abort+0x2a0>
    915c:	e3a02002 	mov	r2, #2	; 0x2
    9160:	e583200c 	str	r2, [r3, #12]
    9164:	e3a00000 	mov	r0, #0	; 0x0
    9168:	eb001725 	bl	ee04 <_IO_flush_all_lockp>
    916c:	eaffff77 	b	8f50 <abort+0x80>
    9170:	00083e78 	.word	0x00083e78

00009174 <exit>:
    9174:	e59f40e4 	ldr	r4, [pc, #228]	; 9260 <exit+0xec>
    9178:	e1a05000 	mov	r5, r0
    917c:	e5943000 	ldr	r3, [r4]
    9180:	e3530000 	cmp	r3, #0	; 0x0
    9184:	0a000016 	beq	91e4 <exit+0x70>
    9188:	e5940000 	ldr	r0, [r4]
    918c:	e5902004 	ldr	r2, [r0, #4]
    9190:	e3520000 	cmp	r2, #0	; 0x0
    9194:	0a00002b 	beq	9248 <exit+0xd4>
    9198:	e2422001 	sub	r2, r2, #1	; 0x1
    919c:	e1a03082 	lsl	r3, r2, #1
    91a0:	e2833001 	add	r3, r3, #1	; 0x1
    91a4:	e7901183 	ldr	r1, [r0, r3, lsl #3]
    91a8:	e3510003 	cmp	r1, #3	; 0x3
    91ac:	e5802004 	str	r2, [r0, #4]
    91b0:	0a00001e 	beq	9230 <exit+0xbc>
    91b4:	e3510004 	cmp	r1, #4	; 0x4
    91b8:	0a000014 	beq	9210 <exit+0x9c>
    91bc:	e3510002 	cmp	r1, #2	; 0x2
    91c0:	1afffff1 	bne	918c <exit+0x18>
    91c4:	e1a03183 	lsl	r3, r3, #3
    91c8:	e0803003 	add	r3, r0, r3
    91cc:	e5931008 	ldr	r1, [r3, #8]
    91d0:	e1a00005 	mov	r0, r5
    91d4:	e593c004 	ldr	ip, [r3, #4]
    91d8:	e1a0e00f 	mov	lr, pc
    91dc:	e12fff1c 	bx	ip
    91e0:	eaffffe8 	b	9188 <exit+0x14>
    91e4:	e59f4078 	ldr	r4, [pc, #120]	; 9264 <exit+0xf0>
    91e8:	e59f6078 	ldr	r6, [pc, #120]	; 9268 <exit+0xf4>
    91ec:	e1540006 	cmp	r4, r6
    91f0:	2a000004 	bcs	9208 <exit+0x94>
    91f4:	e4943004 	ldr	r3, [r4], #4
    91f8:	e1a0e00f 	mov	lr, pc
    91fc:	e12fff13 	bx	r3
    9200:	e1540006 	cmp	r4, r6
    9204:	3afffffa 	bcc	91f4 <exit+0x80>
    9208:	e1a00005 	mov	r0, r5
    920c:	eb003733 	bl	16ee0 <_exit>
    9210:	e1a03183 	lsl	r3, r3, #3
    9214:	e0803003 	add	r3, r0, r3
    9218:	e5930008 	ldr	r0, [r3, #8]
    921c:	e1a01005 	mov	r1, r5
    9220:	e593c004 	ldr	ip, [r3, #4]
    9224:	e1a0e00f 	mov	lr, pc
    9228:	e12fff1c 	bx	ip
    922c:	eaffffd5 	b	9188 <exit+0x14>
    9230:	e1a03183 	lsl	r3, r3, #3
    9234:	e0803003 	add	r3, r0, r3
    9238:	e593c004 	ldr	ip, [r3, #4]
    923c:	e1a0e00f 	mov	lr, pc
    9240:	e12fff1c 	bx	ip
    9244:	eaffffcf 	b	9188 <exit+0x14>
    9248:	e5903000 	ldr	r3, [r0]
    924c:	e3530000 	cmp	r3, #0	; 0x0
    9250:	e5843000 	str	r3, [r4]
    9254:	0affffc8 	beq	917c <exit+0x8>
    9258:	eb002247 	bl	11b7c <__cfree>
    925c:	eaffffc6 	b	917c <exit+0x8>
    9260:	00083124 	.word	0x00083124
    9264:	0007a5b4 	.word	0x0007a5b4
    9268:	0007a5b8 	.word	0x0007a5b8

0000926c <__new_exitfn>:
    926c:	e92d41f0 	push	{r4, r5, r6, r7, r8, lr}
    9270:	e59f61fc 	ldr	r6, [pc, #508]	; 9474 <__new_exitfn+0x208>
    9274:	e3a01001 	mov	r1, #1	; 0x1
    9278:	e1a02006 	mov	r2, r6
    927c:	e3a04000 	mov	r4, #0	; 0x0
    9280:	e5923000 	ldr	r3, [r2]
    9284:	e1530004 	cmp	r3, r4
    9288:	1a000005 	bne	92a4 <__new_exitfn+0x38>
    928c:	e1a00004 	mov	r0, r4
    9290:	e3e03a0f 	mvn	r3, #61440	; 0xf000
    9294:	e1a0e00f 	mov	lr, pc
    9298:	e243f03f 	sub	pc, r3, #63	; 0x3f
    929c:	3afffff7 	bcc	9280 <__new_exitfn+0x14>
    92a0:	e1a03004 	mov	r3, r4
    92a4:	e1530004 	cmp	r3, r4
    92a8:	1a000066 	bne	9448 <__new_exitfn+0x1dc>
    92ac:	e59f51c4 	ldr	r5, [pc, #452]	; 9478 <__new_exitfn+0x20c>
    92b0:	e5950000 	ldr	r0, [r5]
    92b4:	e3500000 	cmp	r0, #0	; 0x0
    92b8:	01a03000 	moveq	r3, r0
    92bc:	01a0e003 	moveq	lr, r3
    92c0:	0a00001e 	beq	9340 <__new_exitfn+0xd4>
    92c4:	e3a0e000 	mov	lr, #0	; 0x0
    92c8:	e1a0400e 	mov	r4, lr
    92cc:	e5901004 	ldr	r1, [r0, #4]
    92d0:	e3510000 	cmp	r1, #0	; 0x0
    92d4:	0a000012 	beq	9324 <__new_exitfn+0xb8>
    92d8:	e241c001 	sub	ip, r1, #1	; 0x1
    92dc:	e1a0308c 	lsl	r3, ip, #1
    92e0:	e2833001 	add	r3, r3, #1	; 0x1
    92e4:	e7902183 	ldr	r2, [r0, r3, lsl #3]
    92e8:	e3520000 	cmp	r2, #0	; 0x0
    92ec:	1a000024 	bne	9384 <__new_exitfn+0x118>
    92f0:	e1a03201 	lsl	r3, r1, #4
    92f4:	e2833008 	add	r3, r3, #8	; 0x8
    92f8:	e0802003 	add	r2, r0, r3
    92fc:	e1a0100c 	mov	r1, ip
    9300:	ea000005 	b	931c <__new_exitfn+0xb0>
    9304:	e5123020 	ldr	r3, [r2, #-32]
    9308:	e3530000 	cmp	r3, #0	; 0x0
    930c:	e2422010 	sub	r2, r2, #16	; 0x10
    9310:	e2413001 	sub	r3, r1, #1	; 0x1
    9314:	1a00001a 	bne	9384 <__new_exitfn+0x118>
    9318:	e1a01003 	mov	r1, r3
    931c:	e3510000 	cmp	r1, #0	; 0x0
    9320:	1afffff7 	bne	9304 <__new_exitfn+0x98>
    9324:	e5903000 	ldr	r3, [r0]
    9328:	e3530000 	cmp	r3, #0	; 0x0
    932c:	e5804004 	str	r4, [r0, #4]
    9330:	e1a0e000 	mov	lr, r0
    9334:	11a00003 	movne	r0, r3
    9338:	1affffe3 	bne	92cc <__new_exitfn+0x60>
    933c:	e1a03000 	mov	r3, r0
    9340:	e3a02001 	mov	r2, #1	; 0x1
    9344:	e3530000 	cmp	r3, #0	; 0x0
    9348:	1a000031 	bne	9414 <__new_exitfn+0x1a8>
    934c:	e3520000 	cmp	r2, #0	; 0x0
    9350:	1a000042 	bne	9460 <__new_exitfn+0x1f4>
    9354:	e3a00001 	mov	r0, #1	; 0x1
    9358:	e3a01f82 	mov	r1, #520	; 0x208
    935c:	eb002c29 	bl	14408 <__calloc>
    9360:	e250e000 	subs	lr, r0, #0	; 0x0
    9364:	0a00002c 	beq	941c <__new_exitfn+0x1b0>
    9368:	e5953000 	ldr	r3, [r5]
    936c:	e58e3000 	str	r3, [lr]
    9370:	e585e000 	str	lr, [r5]
    9374:	e3a03001 	mov	r3, #1	; 0x1
    9378:	e58e3004 	str	r3, [lr, #4]
    937c:	e28e5008 	add	r5, lr, #8	; 0x8
    9380:	ea000006 	b	93a0 <__new_exitfn+0x134>
    9384:	e3510020 	cmp	r1, #32	; 0x20
    9388:	11a03201 	lslne	r3, r1, #4
    938c:	12812001 	addne	r2, r1, #1	; 0x1
    9390:	12833008 	addne	r3, r3, #8	; 0x8
    9394:	15802004 	strne	r2, [r0, #4]
    9398:	10805003 	addne	r5, r0, r3
    939c:	0a00002c 	beq	9454 <__new_exitfn+0x1e8>
    93a0:	e59f00d4 	ldr	r0, [pc, #212]	; 947c <__new_exitfn+0x210>
    93a4:	e8900018 	ldm	r0, {r3, r4}
    93a8:	e3a01001 	mov	r1, #1	; 0x1
    93ac:	e3a02000 	mov	r2, #0	; 0x0
    93b0:	e0933001 	adds	r3, r3, r1
    93b4:	e0a44002 	adc	r4, r4, r2
    93b8:	e8800018 	stm	r0, {r3, r4}
    93bc:	e3a02001 	mov	r2, #1	; 0x1
    93c0:	e5852000 	str	r2, [r5]
    93c4:	e5967000 	ldr	r7, [r6]
    93c8:	e3a01000 	mov	r1, #0	; 0x0
    93cc:	e59f20a0 	ldr	r2, [pc, #160]	; 9474 <__new_exitfn+0x208>
    93d0:	e1a04007 	mov	r4, r7
    93d4:	e5923000 	ldr	r3, [r2]
    93d8:	e1530004 	cmp	r3, r4
    93dc:	1a000005 	bne	93f8 <__new_exitfn+0x18c>
    93e0:	e1a00004 	mov	r0, r4
    93e4:	e3e03a0f 	mvn	r3, #61440	; 0xf000
    93e8:	e1a0e00f 	mov	lr, pc
    93ec:	e243f03f 	sub	pc, r3, #63	; 0x3f
    93f0:	3afffff7 	bcc	93d4 <__new_exitfn+0x168>
    93f4:	e1a03004 	mov	r3, r4
    93f8:	e1570003 	cmp	r7, r3
    93fc:	1afffff0 	bne	93c4 <__new_exitfn+0x158>
    9400:	e3570001 	cmp	r7, #1	; 0x1
    9404:	ca000006 	bgt	9424 <__new_exitfn+0x1b8>
    9408:	e1a00005 	mov	r0, r5
    940c:	e8bd41f0 	pop	{r4, r5, r6, r7, r8, lr}
    9410:	e12fff1e 	bx	lr
    9414:	e35e0000 	cmp	lr, #0	; 0x0
    9418:	1affffd5 	bne	9374 <__new_exitfn+0x108>
    941c:	e3a05000 	mov	r5, #0	; 0x0
    9420:	eaffffe7 	b	93c4 <__new_exitfn+0x158>
    9424:	ebfffea1 	bl	8eb0 <__aeabi_read_tp>
    9428:	e5102498 	ldr	r2, [r0, #-1176]
    942c:	e1a03001 	mov	r3, r1
    9430:	e59f003c 	ldr	r0, [pc, #60]	; 9474 <__new_exitfn+0x208>
    9434:	e3821001 	orr	r1, r2, #1	; 0x1
    9438:	e3a070f0 	mov	r7, #240	; 0xf0
    943c:	e3a02001 	mov	r2, #1	; 0x1
    9440:	ef000000 	svc	0x00000000
    9444:	eaffffef 	b	9408 <__new_exitfn+0x19c>
    9448:	e1a00006 	mov	r0, r6
    944c:	eb003ae3 	bl	17fe0 <__lll_lock_wait_private>
    9450:	eaffff95 	b	92ac <__new_exitfn+0x40>
    9454:	e1a0300e 	mov	r3, lr
    9458:	e3a02000 	mov	r2, #0	; 0x0
    945c:	eaffffb8 	b	9344 <__new_exitfn+0xd8>
    9460:	e59f0018 	ldr	r0, [pc, #24]	; 9480 <__new_exitfn+0x214>
    9464:	e59f1018 	ldr	r1, [pc, #24]	; 9484 <__new_exitfn+0x218>
    9468:	e3a0205a 	mov	r2, #90	; 0x5a
    946c:	e59f3014 	ldr	r3, [pc, #20]	; 9488 <__new_exitfn+0x21c>
    9470:	eb0069ed 	bl	23c2c <__assert_fail>
    9474:	00083e88 	.word	0x00083e88
    9478:	00083124 	.word	0x00083124
    947c:	01e2eb38 	.word	0x01e2eb38
    9480:	00066104 	.word	0x00066104
    9484:	00066118 	.word	0x00066118
    9488:	00066128 	.word	0x00066128

0000948c <__cxa_atexit>:
    948c:	e92d4070 	push	{r4, r5, r6, lr}
    9490:	e1a04000 	mov	r4, r0
    9494:	e1a05001 	mov	r5, r1
    9498:	e1a06002 	mov	r6, r2
    949c:	ebffff72 	bl	926c <__new_exitfn>
    94a0:	e3500000 	cmp	r0, #0	; 0x0
    94a4:	03e00000 	mvneq	r0, #0	; 0x0
    94a8:	0a000006 	beq	94c8 <__cxa_atexit+0x3c>
    94ac:	e9800070 	stmib	r0, {r4, r5, r6}
    94b0:	e3e0ca0f 	mvn	ip, #61440	; 0xf000
    94b4:	e1a0e00f 	mov	lr, pc
    94b8:	e24cf05f 	sub	pc, ip, #95	; 0x5f
    94bc:	e3a03004 	mov	r3, #4	; 0x4
    94c0:	e5803000 	str	r3, [r0]
    94c4:	e3a00000 	mov	r0, #0	; 0x0
    94c8:	e8bd4070 	pop	{r4, r5, r6, lr}
    94cc:	e12fff1e 	bx	lr

000094d0 <_IO_printf>:
    94d0:	e92d000f 	push	{r0, r1, r2, r3}
    94d4:	e52de004 	push	{lr}		; (str lr, [sp, #-4]!)
    94d8:	e59f3028 	ldr	r3, [pc, #40]	; 9508 <_IO_printf+0x38>
    94dc:	e24dd00c 	sub	sp, sp, #12	; 0xc
    94e0:	e28dc014 	add	ip, sp, #20	; 0x14
    94e4:	e5930000 	ldr	r0, [r3]
    94e8:	e1a0200c 	mov	r2, ip
    94ec:	e59d1010 	ldr	r1, [sp, #16]
    94f0:	e58dc004 	str	ip, [sp, #4]
    94f4:	eb00881f 	bl	2b578 <_IO_vfprintf>
    94f8:	e28dd00c 	add	sp, sp, #12	; 0xc
    94fc:	e49de004 	pop	{lr}		; (ldr lr, [sp], #4)
    9500:	e28dd010 	add	sp, sp, #16	; 0x10
    9504:	e12fff1e 	bx	lr
    9508:	00083544 	.word	0x00083544

0000950c <_IO_new_fclose>:
    950c:	e5903000 	ldr	r3, [r0]
    9510:	e3130a02 	tst	r3, #8192	; 0x2000
    9514:	e92d41f0 	push	{r4, r5, r6, r7, r8, lr}
    9518:	e1a05000 	mov	r5, r0
    951c:	1a000073 	bne	96f0 <_IO_new_fclose+0x1e4>
    9520:	e2134902 	ands	r4, r3, #32768	; 0x8000
    9524:	0a000056 	beq	9684 <_IO_new_fclose+0x178>
    9528:	e3130a02 	tst	r3, #8192	; 0x2000
    952c:	1a00004f 	bne	9670 <_IO_new_fclose+0x164>
    9530:	e2138020 	ands	r8, r3, #32	; 0x20
    9534:	13e08000 	mvnne	r8, #0	; 0x0
    9538:	e3130902 	tst	r3, #32768	; 0x8000
    953c:	1a000005 	bne	9558 <_IO_new_fclose+0x4c>
    9540:	e5956048 	ldr	r6, [r5, #72]
    9544:	e5963004 	ldr	r3, [r6, #4]
    9548:	e2433001 	sub	r3, r3, #1	; 0x1
    954c:	e3530000 	cmp	r3, #0	; 0x0
    9550:	e5863004 	str	r3, [r6, #4]
    9554:	0a000068 	beq	96fc <_IO_new_fclose+0x1f0>
    9558:	e5952098 	ldr	r2, [r5, #152]
    955c:	e1a00005 	mov	r0, r5
    9560:	e3a01000 	mov	r1, #0	; 0x0
    9564:	e592c008 	ldr	ip, [r2, #8]
    9568:	e1a0e00f 	mov	lr, pc
    956c:	e12fff1c 	bx	ip
    9570:	e595306c 	ldr	r3, [r5, #108]
    9574:	e3530000 	cmp	r3, #0	; 0x0
    9578:	da000036 	ble	9658 <_IO_new_fclose+0x14c>
    957c:	e5957058 	ldr	r7, [r5, #88]
    9580:	e3a01001 	mov	r1, #1	; 0x1
    9584:	e59f22b4 	ldr	r2, [pc, #692]	; 9840 <_IO_new_fclose+0x334>
    9588:	e3a04000 	mov	r4, #0	; 0x0
    958c:	e5923000 	ldr	r3, [r2]
    9590:	e1530004 	cmp	r3, r4
    9594:	1a000005 	bne	95b0 <_IO_new_fclose+0xa4>
    9598:	e1a00004 	mov	r0, r4
    959c:	e3e03a0f 	mvn	r3, #61440	; 0xf000
    95a0:	e1a0e00f 	mov	lr, pc
    95a4:	e243f03f 	sub	pc, r3, #63	; 0x3f
    95a8:	3afffff7 	bcc	958c <_IO_new_fclose+0x80>
    95ac:	e1a03004 	mov	r3, r4
    95b0:	e1530004 	cmp	r3, r4
    95b4:	01a06002 	moveq	r6, r2
    95b8:	1a000073 	bne	978c <_IO_new_fclose+0x280>
    95bc:	e5970024 	ldr	r0, [r7, #36]
    95c0:	eb004033 	bl	19694 <__gconv_release_step>
    95c4:	e5970050 	ldr	r0, [r7, #80]
    95c8:	eb004031 	bl	19694 <__gconv_release_step>
    95cc:	e5967000 	ldr	r7, [r6]
    95d0:	e3a01000 	mov	r1, #0	; 0x0
    95d4:	e59f2264 	ldr	r2, [pc, #612]	; 9840 <_IO_new_fclose+0x334>
    95d8:	e1a04007 	mov	r4, r7
    95dc:	e5923000 	ldr	r3, [r2]
    95e0:	e1530004 	cmp	r3, r4
    95e4:	1a000005 	bne	9600 <_IO_new_fclose+0xf4>
    95e8:	e1a00004 	mov	r0, r4
    95ec:	e3e03a0f 	mvn	r3, #61440	; 0xf000
    95f0:	e1a0e00f 	mov	lr, pc
    95f4:	e243f03f 	sub	pc, r3, #63	; 0x3f
    95f8:	3afffff7 	bcc	95dc <_IO_new_fclose+0xd0>
    95fc:	e1a03004 	mov	r3, r4
    9600:	e1570003 	cmp	r7, r3
    9604:	1afffff0 	bne	95cc <_IO_new_fclose+0xc0>
    9608:	e3570001 	cmp	r7, #1	; 0x1
    960c:	ca000055 	bgt	9768 <_IO_new_fclose+0x25c>
    9610:	e59f322c 	ldr	r3, [pc, #556]	; 9844 <_IO_new_fclose+0x338>
    9614:	e5932000 	ldr	r2, [r3]
    9618:	e1550002 	cmp	r5, r2
    961c:	0a00000a 	beq	964c <_IO_new_fclose+0x140>
    9620:	e59f3220 	ldr	r3, [pc, #544]	; 9848 <_IO_new_fclose+0x33c>
    9624:	e5932000 	ldr	r2, [r3]
    9628:	e1550002 	cmp	r5, r2
    962c:	0a000006 	beq	964c <_IO_new_fclose+0x140>
    9630:	e59f3214 	ldr	r3, [pc, #532]	; 984c <_IO_new_fclose+0x340>
    9634:	e5932000 	ldr	r2, [r3]
    9638:	e1550002 	cmp	r5, r2
    963c:	13a03000 	movne	r3, #0	; 0x0
    9640:	15853000 	strne	r3, [r5]
    9644:	11a00005 	movne	r0, r5
    9648:	1b00214b 	blne	11b7c <__cfree>
    964c:	e1a00008 	mov	r0, r8
    9650:	e8bd41f0 	pop	{r4, r5, r6, r7, r8, lr}
    9654:	e12fff1e 	bx	lr
    9658:	e5953024 	ldr	r3, [r5, #36]
    965c:	e3530000 	cmp	r3, #0	; 0x0
    9660:	0affffea 	beq	9610 <_IO_new_fclose+0x104>
    9664:	e1a00005 	mov	r0, r5
    9668:	eb00137c 	bl	e460 <_IO_free_backup_area>
    966c:	eaffffe7 	b	9610 <_IO_new_fclose+0x104>
    9670:	e1a00005 	mov	r0, r5
    9674:	eb000fa1 	bl	d500 <_IO_new_file_close_it>
    9678:	e1a08000 	mov	r8, r0
    967c:	e5953000 	ldr	r3, [r5]
    9680:	eaffffac 	b	9538 <_IO_new_fclose+0x2c>
    9684:	e5956048 	ldr	r6, [r5, #72]
    9688:	ebfffe08 	bl	8eb0 <__aeabi_read_tp>
    968c:	e5963008 	ldr	r3, [r6, #8]
    9690:	e2407e4a 	sub	r7, r0, #1184	; 0x4a0
    9694:	e1530007 	cmp	r3, r7
    9698:	0a00000f 	beq	96dc <_IO_new_fclose+0x1d0>
    969c:	e3a01001 	mov	r1, #1	; 0x1
    96a0:	e1a02006 	mov	r2, r6
    96a4:	e5923000 	ldr	r3, [r2]
    96a8:	e1530004 	cmp	r3, r4
    96ac:	1a000005 	bne	96c8 <_IO_new_fclose+0x1bc>
    96b0:	e1a00004 	mov	r0, r4
    96b4:	e3e03a0f 	mvn	r3, #61440	; 0xf000
    96b8:	e1a0e00f 	mov	lr, pc
    96bc:	e243f03f 	sub	pc, r3, #63	; 0x3f
    96c0:	3afffff7 	bcc	96a4 <_IO_new_fclose+0x198>
    96c4:	e1a03004 	mov	r3, r4
    96c8:	e3530000 	cmp	r3, #0	; 0x0
    96cc:	1a000032 	bne	979c <_IO_new_fclose+0x290>
    96d0:	e5953048 	ldr	r3, [r5, #72]
    96d4:	e5837008 	str	r7, [r3, #8]
    96d8:	e1a06003 	mov	r6, r3
    96dc:	e5963004 	ldr	r3, [r6, #4]
    96e0:	e2833001 	add	r3, r3, #1	; 0x1
    96e4:	e5863004 	str	r3, [r6, #4]
    96e8:	e5953000 	ldr	r3, [r5]
    96ec:	eaffff8d 	b	9528 <_IO_new_fclose+0x1c>
    96f0:	eb0017d0 	bl	f638 <_IO_un_link>
    96f4:	e5953000 	ldr	r3, [r5]
    96f8:	eaffff88 	b	9520 <_IO_new_fclose+0x14>
    96fc:	e5863008 	str	r3, [r6, #8]
    9700:	e5967000 	ldr	r7, [r6]
    9704:	e3a01000 	mov	r1, #0	; 0x0
    9708:	e1a02006 	mov	r2, r6
    970c:	e1a04007 	mov	r4, r7
    9710:	e5923000 	ldr	r3, [r2]
    9714:	e1530004 	cmp	r3, r4
    9718:	1a000005 	bne	9734 <_IO_new_fclose+0x228>
    971c:	e1a00004 	mov	r0, r4
    9720:	e3e03a0f 	mvn	r3, #61440	; 0xf000
    9724:	e1a0e00f 	mov	lr, pc
    9728:	e243f03f 	sub	pc, r3, #63	; 0x3f
    972c:	3afffff7 	bcc	9710 <_IO_new_fclose+0x204>
    9730:	e1a03004 	mov	r3, r4
    9734:	e1570003 	cmp	r7, r3
    9738:	1afffff0 	bne	9700 <_IO_new_fclose+0x1f4>
    973c:	e3570001 	cmp	r7, #1	; 0x1
    9740:	daffff84 	ble	9558 <_IO_new_fclose+0x4c>
    9744:	ebfffdd9 	bl	8eb0 <__aeabi_read_tp>
    9748:	e5102498 	ldr	r2, [r0, #-1176]
    974c:	e1a03001 	mov	r3, r1
    9750:	e1a00006 	mov	r0, r6
    9754:	e3821001 	orr	r1, r2, #1	; 0x1
    9758:	e3a070f0 	mov	r7, #240	; 0xf0
    975c:	e3a02001 	mov	r2, #1	; 0x1
    9760:	ef000000 	svc	0x00000000
    9764:	eaffff7b 	b	9558 <_IO_new_fclose+0x4c>
    9768:	ebfffdd0 	bl	8eb0 <__aeabi_read_tp>
    976c:	e5102498 	ldr	r2, [r0, #-1176]
    9770:	e1a03001 	mov	r3, r1
    9774:	e59f00c4 	ldr	r0, [pc, #196]	; 9840 <_IO_new_fclose+0x334>
    9778:	e3821001 	orr	r1, r2, #1	; 0x1
    977c:	e3a070f0 	mov	r7, #240	; 0xf0
    9780:	e3a02001 	mov	r2, #1	; 0x1
    9784:	ef000000 	svc	0x00000000
    9788:	eaffffa0 	b	9610 <_IO_new_fclose+0x104>
    978c:	e1a00002 	mov	r0, r2
    9790:	e1a06002 	mov	r6, r2
    9794:	eb003a11 	bl	17fe0 <__lll_lock_wait_private>
    9798:	eaffff87 	b	95bc <_IO_new_fclose+0xb0>
    979c:	e1a00006 	mov	r0, r6
    97a0:	eb003a0e 	bl	17fe0 <__lll_lock_wait_private>
    97a4:	eaffffc9 	b	96d0 <_IO_new_fclose+0x1c4>
    97a8:	e5953000 	ldr	r3, [r5]
    97ac:	e3130902 	tst	r3, #32768	; 0x8000
    97b0:	e1a08000 	mov	r8, r0
    97b4:	1a00001f 	bne	9838 <_IO_new_fclose+0x32c>
    97b8:	e5956048 	ldr	r6, [r5, #72]
    97bc:	e5963004 	ldr	r3, [r6, #4]
    97c0:	e2433001 	sub	r3, r3, #1	; 0x1
    97c4:	e3530000 	cmp	r3, #0	; 0x0
    97c8:	e5863004 	str	r3, [r6, #4]
    97cc:	1a000019 	bne	9838 <_IO_new_fclose+0x32c>
    97d0:	e5863008 	str	r3, [r6, #8]
    97d4:	e5965000 	ldr	r5, [r6]
    97d8:	e3a01000 	mov	r1, #0	; 0x0
    97dc:	e1a02006 	mov	r2, r6
    97e0:	e1a04005 	mov	r4, r5
    97e4:	e5923000 	ldr	r3, [r2]
    97e8:	e1530004 	cmp	r3, r4
    97ec:	1a000005 	bne	9808 <_IO_new_fclose+0x2fc>
    97f0:	e1a00004 	mov	r0, r4
    97f4:	e3e03a0f 	mvn	r3, #61440	; 0xf000
    97f8:	e1a0e00f 	mov	lr, pc
    97fc:	e243f03f 	sub	pc, r3, #63	; 0x3f
    9800:	3afffff7 	bcc	97e4 <_IO_new_fclose+0x2d8>
    9804:	e1a03004 	mov	r3, r4
    9808:	e1550003 	cmp	r5, r3
    980c:	1afffff0 	bne	97d4 <_IO_new_fclose+0x2c8>
    9810:	e3550001 	cmp	r5, #1	; 0x1
    9814:	da000007 	ble	9838 <_IO_new_fclose+0x32c>
    9818:	ebfffda4 	bl	8eb0 <__aeabi_read_tp>
    981c:	e5102498 	ldr	r2, [r0, #-1176]
    9820:	e1a03001 	mov	r3, r1
    9824:	e1a00006 	mov	r0, r6
    9828:	e3821001 	orr	r1, r2, #1	; 0x1
    982c:	e3a070f0 	mov	r7, #240	; 0xf0
    9830:	e3a02001 	mov	r2, #1	; 0x1
    9834:	ef000000 	svc	0x00000000
    9838:	e1a00008 	mov	r0, r8
    983c:	eb016a4c 	bl	64174 <_Unwind_Resume>
    9840:	01e2ebec 	.word	0x01e2ebec
    9844:	00083540 	.word	0x00083540
    9848:	00083544 	.word	0x00083544
    984c:	00083548 	.word	0x00083548

00009850 <__fopen_maybe_mmap>:
    9850:	e590303c 	ldr	r3, [r0, #60]
    9854:	e3130001 	tst	r3, #1	; 0x1
    9858:	012fff1e 	bxeq	lr
    985c:	e5903000 	ldr	r3, [r0]
    9860:	e3130008 	tst	r3, #8	; 0x8
    9864:	012fff1e 	bxeq	lr
    9868:	e590306c 	ldr	r3, [r0, #108]
    986c:	e3530000 	cmp	r3, #0	; 0x0
    9870:	d59f3018 	ldrle	r3, [pc, #24]	; 9890 <__fopen_maybe_mmap+0x40>
    9874:	c59f2018 	ldrgt	r2, [pc, #24]	; 9894 <__fopen_maybe_mmap+0x44>
    9878:	d5803098 	strle	r3, [r0, #152]
    987c:	d59f2010 	ldrle	r2, [pc, #16]	; 9894 <__fopen_maybe_mmap+0x44>
    9880:	e590305c 	ldr	r3, [r0, #92]
    9884:	c5802098 	strgt	r2, [r0, #152]
    9888:	e58320b8 	str	r2, [r3, #184]
    988c:	e12fff1e 	bx	lr
    9890:	00066388 	.word	0x00066388
    9894:	00066250 	.word	0x00066250

00009898 <__fopen_internal>:
    9898:	e92d40f0 	push	{r4, r5, r6, r7, lr}
    989c:	e1a07000 	mov	r7, r0
    98a0:	e24dd00c 	sub	sp, sp, #12	; 0xc
    98a4:	e3a00f5a 	mov	r0, #360	; 0x168
    98a8:	e1a05001 	mov	r5, r1
    98ac:	e1a06002 	mov	r6, r2
    98b0:	eb002c00 	bl	148b8 <__libc_malloc>
    98b4:	e2504000 	subs	r4, r0, #0	; 0x0
    98b8:	01a05004 	moveq	r5, r4
    98bc:	0a000022 	beq	994c <__fopen_internal+0xb4>
    98c0:	e3a01000 	mov	r1, #0	; 0x0
    98c4:	e59fc0a8 	ldr	ip, [pc, #168]	; 9974 <__fopen_internal+0xdc>
    98c8:	e28430a0 	add	r3, r4, #160	; 0xa0
    98cc:	e1a02001 	mov	r2, r1
    98d0:	e5843048 	str	r3, [r4, #72]
    98d4:	e28430ac 	add	r3, r4, #172	; 0xac
    98d8:	e58dc000 	str	ip, [sp]
    98dc:	eb0010f7 	bl	dcc0 <_IO_no_init>
    98e0:	e59f3090 	ldr	r3, [pc, #144]	; 9978 <__fopen_internal+0xe0>
    98e4:	e1a00004 	mov	r0, r4
    98e8:	e5843098 	str	r3, [r4, #152]
    98ec:	eb000ed0 	bl	d434 <_IO_new_file_init>
    98f0:	e1a02005 	mov	r2, r5
    98f4:	e1a03006 	mov	r3, r6
    98f8:	e1a00004 	mov	r0, r4
    98fc:	e1a01007 	mov	r1, r7
    9900:	eb000f56 	bl	d660 <_IO_new_file_fopen>
    9904:	e2506000 	subs	r6, r0, #0	; 0x0
    9908:	e1a05004 	mov	r5, r4
    990c:	0a000012 	beq	995c <__fopen_internal+0xc4>
    9910:	e594303c 	ldr	r3, [r4, #60]
    9914:	e3130001 	tst	r3, #1	; 0x1
    9918:	0a00000b 	beq	994c <__fopen_internal+0xb4>
    991c:	e5943000 	ldr	r3, [r4]
    9920:	e3130008 	tst	r3, #8	; 0x8
    9924:	0a000008 	beq	994c <__fopen_internal+0xb4>
    9928:	e594306c 	ldr	r3, [r4, #108]
    992c:	e3530000 	cmp	r3, #0	; 0x0
    9930:	d59f3044 	ldrle	r3, [pc, #68]	; 997c <__fopen_internal+0xe4>
    9934:	c59f2044 	ldrgt	r2, [pc, #68]	; 9980 <__fopen_internal+0xe8>
    9938:	d5843098 	strle	r3, [r4, #152]
    993c:	d59f203c 	ldrle	r2, [pc, #60]	; 9980 <__fopen_internal+0xe8>
    9940:	e594305c 	ldr	r3, [r4, #92]
    9944:	c5842098 	strgt	r2, [r4, #152]
    9948:	e58320b8 	str	r2, [r3, #184]
    994c:	e1a00005 	mov	r0, r5
    9950:	e28dd00c 	add	sp, sp, #12	; 0xc
    9954:	e8bd40f0 	pop	{r4, r5, r6, r7, lr}
    9958:	e12fff1e 	bx	lr
    995c:	e1a00004 	mov	r0, r4
    9960:	eb001734 	bl	f638 <_IO_un_link>
    9964:	e1a00004 	mov	r0, r4
    9968:	eb002083 	bl	11b7c <__cfree>
    996c:	e1a05006 	mov	r5, r6
    9970:	eafffff5 	b	994c <__fopen_internal+0xb4>
    9974:	000661a8 	.word	0x000661a8
    9978:	00066334 	.word	0x00066334
    997c:	00066388 	.word	0x00066388
    9980:	00066250 	.word	0x00066250

00009984 <_IO_new_fopen>:
    9984:	e3a02001 	mov	r2, #1	; 0x1
    9988:	eaffffc2 	b	9898 <__fopen_internal>

0000998c <_IO_fread>:
    998c:	e92d4ff8 	push	{r3, r4, r5, r6, r7, r8, r9, sl, fp, lr}
    9990:	e01a0291 	muls	sl, r1, r2
    9994:	e1a06002 	mov	r6, r2
    9998:	e1a08001 	mov	r8, r1
    999c:	e1a09000 	mov	r9, r0
    99a0:	e1a07003 	mov	r7, r3
    99a4:	01a0600a 	moveq	r6, sl
    99a8:	0a000030 	beq	9a70 <_IO_fread+0xe4>
    99ac:	e5933000 	ldr	r3, [r3]
    99b0:	e2134902 	ands	r4, r3, #32768	; 0x8000
    99b4:	0a000030 	beq	9a7c <_IO_fread+0xf0>
    99b8:	e1a01009 	mov	r1, r9
    99bc:	e1a00007 	mov	r0, r7
    99c0:	e1a0200a 	mov	r2, sl
    99c4:	eb001090 	bl	dc0c <_IO_sgetn>
    99c8:	e5973000 	ldr	r3, [r7]
    99cc:	e3130902 	tst	r3, #32768	; 0x8000
    99d0:	e1a09000 	mov	r9, r0
    99d4:	1a00001f 	bne	9a58 <_IO_fread+0xcc>
    99d8:	e5975048 	ldr	r5, [r7, #72]
    99dc:	e5953004 	ldr	r3, [r5, #4]
    99e0:	e2433001 	sub	r3, r3, #1	; 0x1
    99e4:	e3530000 	cmp	r3, #0	; 0x0
    99e8:	e5853004 	str	r3, [r5, #4]
    99ec:	1a000019 	bne	9a58 <_IO_fread+0xcc>
    99f0:	e5853008 	str	r3, [r5, #8]
    99f4:	e5957000 	ldr	r7, [r5]
    99f8:	e3a01000 	mov	r1, #0	; 0x0
    99fc:	e1a02005 	mov	r2, r5
    9a00:	e1a04007 	mov	r4, r7
    9a04:	e5923000 	ldr	r3, [r2]
    9a08:	e1530004 	cmp	r3, r4
    9a0c:	1a000005 	bne	9a28 <_IO_fread+0x9c>
    9a10:	e1a00004 	mov	r0, r4
    9a14:	e3e03a0f 	mvn	r3, #61440	; 0xf000
    9a18:	e1a0e00f 	mov	lr, pc
    9a1c:	e243f03f 	sub	pc, r3, #63	; 0x3f
    9a20:	3afffff7 	bcc	9a04 <_IO_fread+0x78>
    9a24:	e1a03004 	mov	r3, r4
    9a28:	e1570003 	cmp	r7, r3
    9a2c:	1afffff0 	bne	99f4 <_IO_fread+0x68>
    9a30:	e3570001 	cmp	r7, #1	; 0x1
    9a34:	da000007 	ble	9a58 <_IO_fread+0xcc>
    9a38:	ebfffd1c 	bl	8eb0 <__aeabi_read_tp>
    9a3c:	e5102498 	ldr	r2, [r0, #-1176]
    9a40:	e1a03001 	mov	r3, r1
    9a44:	e1a00005 	mov	r0, r5
    9a48:	e3821001 	orr	r1, r2, #1	; 0x1
    9a4c:	e3a070f0 	mov	r7, #240	; 0xf0
    9a50:	e3a02001 	mov	r2, #1	; 0x1
    9a54:	ef000000 	svc	0x00000000
    9a58:	e15a0009 	cmp	sl, r9
    9a5c:	0a000003 	beq	9a70 <_IO_fread+0xe4>
    9a60:	e1a00009 	mov	r0, r9
    9a64:	e1a01008 	mov	r1, r8
    9a68:	eb0164b6 	bl	62d48 <__aeabi_uidiv>
    9a6c:	e1a06000 	mov	r6, r0
    9a70:	e1a00006 	mov	r0, r6
    9a74:	e8bd4ff8 	pop	{r3, r4, r5, r6, r7, r8, r9, sl, fp, lr}
    9a78:	e12fff1e 	bx	lr
    9a7c:	e5975048 	ldr	r5, [r7, #72]
    9a80:	ebfffd0a 	bl	8eb0 <__aeabi_read_tp>
    9a84:	e5953008 	ldr	r3, [r5, #8]
    9a88:	e240be4a 	sub	fp, r0, #1184	; 0x4a0
    9a8c:	e153000b 	cmp	r3, fp
    9a90:	0a00000f 	beq	9ad4 <_IO_fread+0x148>
    9a94:	e3a01001 	mov	r1, #1	; 0x1
    9a98:	e1a02005 	mov	r2, r5
    9a9c:	e5923000 	ldr	r3, [r2]
    9aa0:	e1530004 	cmp	r3, r4
    9aa4:	1a000005 	bne	9ac0 <_IO_fread+0x134>
    9aa8:	e1a00004 	mov	r0, r4
    9aac:	e3e03a0f 	mvn	r3, #61440	; 0xf000
    9ab0:	e1a0e00f 	mov	lr, pc
    9ab4:	e243f03f 	sub	pc, r3, #63	; 0x3f
    9ab8:	3afffff7 	bcc	9a9c <_IO_fread+0x110>
    9abc:	e1a03004 	mov	r3, r4
    9ac0:	e3530000 	cmp	r3, #0	; 0x0
    9ac4:	1a000006 	bne	9ae4 <_IO_fread+0x158>
    9ac8:	e5973048 	ldr	r3, [r7, #72]
    9acc:	e583b008 	str	fp, [r3, #8]
    9ad0:	e1a05003 	mov	r5, r3
    9ad4:	e5953004 	ldr	r3, [r5, #4]
    9ad8:	e2833001 	add	r3, r3, #1	; 0x1
    9adc:	e5853004 	str	r3, [r5, #4]
    9ae0:	eaffffb4 	b	99b8 <_IO_fread+0x2c>
    9ae4:	e1a00005 	mov	r0, r5
    9ae8:	eb00393c 	bl	17fe0 <__lll_lock_wait_private>
    9aec:	eafffff5 	b	9ac8 <_IO_fread+0x13c>
    9af0:	e5973000 	ldr	r3, [r7]
    9af4:	e3130902 	tst	r3, #32768	; 0x8000
    9af8:	e1a08000 	mov	r8, r0
    9afc:	1a00001f 	bne	9b80 <_IO_fread+0x1f4>
    9b00:	e5976048 	ldr	r6, [r7, #72]
    9b04:	e5963004 	ldr	r3, [r6, #4]
    9b08:	e2433001 	sub	r3, r3, #1	; 0x1
    9b0c:	e3530000 	cmp	r3, #0	; 0x0
    9b10:	e5863004 	str	r3, [r6, #4]
    9b14:	1a000019 	bne	9b80 <_IO_fread+0x1f4>
    9b18:	e5863008 	str	r3, [r6, #8]
    9b1c:	e5965000 	ldr	r5, [r6]
    9b20:	e3a01000 	mov	r1, #0	; 0x0
    9b24:	e1a02006 	mov	r2, r6
    9b28:	e1a04005 	mov	r4, r5
    9b2c:	e5923000 	ldr	r3, [r2]
    9b30:	e1530004 	cmp	r3, r4
    9b34:	1a000005 	bne	9b50 <_IO_fread+0x1c4>
    9b38:	e1a00004 	mov	r0, r4
    9b3c:	e3e03a0f 	mvn	r3, #61440	; 0xf000
    9b40:	e1a0e00f 	mov	lr, pc
    9b44:	e243f03f 	sub	pc, r3, #63	; 0x3f
    9b48:	3afffff7 	bcc	9b2c <_IO_fread+0x1a0>
    9b4c:	e1a03004 	mov	r3, r4
    9b50:	e1550003 	cmp	r5, r3
    9b54:	1afffff0 	bne	9b1c <_IO_fread+0x190>
    9b58:	e3550001 	cmp	r5, #1	; 0x1
    9b5c:	da000007 	ble	9b80 <_IO_fread+0x1f4>
    9b60:	ebfffcd2 	bl	8eb0 <__aeabi_read_tp>
    9b64:	e5102498 	ldr	r2, [r0, #-1176]
    9b68:	e1a03001 	mov	r3, r1
    9b6c:	e1a00006 	mov	r0, r6
    9b70:	e3821001 	orr	r1, r2, #1	; 0x1
    9b74:	e3a070f0 	mov	r7, #240	; 0xf0
    9b78:	e3a02001 	mov	r2, #1	; 0x1
    9b7c:	ef000000 	svc	0x00000000
    9b80:	e1a00008 	mov	r0, r8
    9b84:	eb01697a 	bl	64174 <_Unwind_Resume>

00009b88 <_IO_fwrite>:
    9b88:	e92d4ff8 	push	{r3, r4, r5, r6, r7, r8, r9, sl, fp, lr}
    9b8c:	e0190291 	muls	r9, r1, r2
    9b90:	e1a06002 	mov	r6, r2
    9b94:	e1a0a001 	mov	sl, r1
    9b98:	e1a0b000 	mov	fp, r0
    9b9c:	e1a07003 	mov	r7, r3
    9ba0:	01a06009 	moveq	r6, r9
    9ba4:	0a000034 	beq	9c7c <_IO_fwrite+0xf4>
    9ba8:	e5933000 	ldr	r3, [r3]
    9bac:	e2134902 	ands	r4, r3, #32768	; 0x8000
    9bb0:	0a00003d 	beq	9cac <_IO_fwrite+0x124>
    9bb4:	e597306c 	ldr	r3, [r7, #108]
    9bb8:	e3530000 	cmp	r3, #0	; 0x0
    9bbc:	02433001 	subeq	r3, r3, #1	; 0x1
    9bc0:	0587306c 	streq	r3, [r7, #108]
    9bc4:	0a00002f 	beq	9c88 <_IO_fwrite+0x100>
    9bc8:	e3730001 	cmn	r3, #1	; 0x1
    9bcc:	13a08000 	movne	r8, #0	; 0x0
    9bd0:	0a00002c 	beq	9c88 <_IO_fwrite+0x100>
    9bd4:	e5973000 	ldr	r3, [r7]
    9bd8:	e3130902 	tst	r3, #32768	; 0x8000
    9bdc:	1a00001f 	bne	9c60 <_IO_fwrite+0xd8>
    9be0:	e5975048 	ldr	r5, [r7, #72]
    9be4:	e5953004 	ldr	r3, [r5, #4]
    9be8:	e2433001 	sub	r3, r3, #1	; 0x1
    9bec:	e3530000 	cmp	r3, #0	; 0x0
    9bf0:	e5853004 	str	r3, [r5, #4]
    9bf4:	1a000019 	bne	9c60 <_IO_fwrite+0xd8>
    9bf8:	e5853008 	str	r3, [r5, #8]
    9bfc:	e5957000 	ldr	r7, [r5]
    9c00:	e3a01000 	mov	r1, #0	; 0x0
    9c04:	e1a02005 	mov	r2, r5
    9c08:	e1a04007 	mov	r4, r7
    9c0c:	e5923000 	ldr	r3, [r2]
    9c10:	e1530004 	cmp	r3, r4
    9c14:	1a000005 	bne	9c30 <_IO_fwrite+0xa8>
    9c18:	e1a00004 	mov	r0, r4
    9c1c:	e3e03a0f 	mvn	r3, #61440	; 0xf000
    9c20:	e1a0e00f 	mov	lr, pc
    9c24:	e243f03f 	sub	pc, r3, #63	; 0x3f
    9c28:	3afffff7 	bcc	9c0c <_IO_fwrite+0x84>
    9c2c:	e1a03004 	mov	r3, r4
    9c30:	e1570003 	cmp	r7, r3
    9c34:	1afffff0 	bne	9bfc <_IO_fwrite+0x74>
    9c38:	e3570001 	cmp	r7, #1	; 0x1
    9c3c:	da000007 	ble	9c60 <_IO_fwrite+0xd8>
    9c40:	ebfffc9a 	bl	8eb0 <__aeabi_read_tp>
    9c44:	e5102498 	ldr	r2, [r0, #-1176]
    9c48:	e1a03001 	mov	r3, r1
    9c4c:	e1a00005 	mov	r0, r5
    9c50:	e3821001 	orr	r1, r2, #1	; 0x1
    9c54:	e3a070f0 	mov	r7, #240	; 0xf0
    9c58:	e3a02001 	mov	r2, #1	; 0x1
    9c5c:	ef000000 	svc	0x00000000
    9c60:	e3780001 	cmn	r8, #1	; 0x1
    9c64:	11580009 	cmpne	r8, r9
    9c68:	0a000003 	beq	9c7c <_IO_fwrite+0xf4>
    9c6c:	e1a00008 	mov	r0, r8
    9c70:	e1a0100a 	mov	r1, sl
    9c74:	eb016433 	bl	62d48 <__aeabi_uidiv>
    9c78:	e1a06000 	mov	r6, r0
    9c7c:	e1a00006 	mov	r0, r6
    9c80:	e8bd4ff8 	pop	{r3, r4, r5, r6, r7, r8, r9, sl, fp, lr}
    9c84:	e12fff1e 	bx	lr
    9c88:	e1a0100b 	mov	r1, fp
    9c8c:	e5973098 	ldr	r3, [r7, #152]
    9c90:	e1a00007 	mov	r0, r7
    9c94:	e1a02009 	mov	r2, r9
    9c98:	e593c01c 	ldr	ip, [r3, #28]
    9c9c:	e1a0e00f 	mov	lr, pc
    9ca0:	e12fff1c 	bx	ip
    9ca4:	e1a08000 	mov	r8, r0
    9ca8:	eaffffc9 	b	9bd4 <_IO_fwrite+0x4c>
    9cac:	e5975048 	ldr	r5, [r7, #72]
    9cb0:	ebfffc7e 	bl	8eb0 <__aeabi_read_tp>
    9cb4:	e5953008 	ldr	r3, [r5, #8]
    9cb8:	e2408e4a 	sub	r8, r0, #1184	; 0x4a0
    9cbc:	e1530008 	cmp	r3, r8
    9cc0:	0a00000f 	beq	9d04 <_IO_fwrite+0x17c>
    9cc4:	e3a01001 	mov	r1, #1	; 0x1
    9cc8:	e1a02005 	mov	r2, r5
    9ccc:	e5923000 	ldr	r3, [r2]
    9cd0:	e1530004 	cmp	r3, r4
    9cd4:	1a000005 	bne	9cf0 <_IO_fwrite+0x168>
    9cd8:	e1a00004 	mov	r0, r4
    9cdc:	e3e03a0f 	mvn	r3, #61440	; 0xf000
    9ce0:	e1a0e00f 	mov	lr, pc
    9ce4:	e243f03f 	sub	pc, r3, #63	; 0x3f
    9ce8:	3afffff7 	bcc	9ccc <_IO_fwrite+0x144>
    9cec:	e1a03004 	mov	r3, r4
    9cf0:	e3530000 	cmp	r3, #0	; 0x0
    9cf4:	1a00000b 	bne	9d28 <_IO_fwrite+0x1a0>
    9cf8:	e5973048 	ldr	r3, [r7, #72]
    9cfc:	e5838008 	str	r8, [r3, #8]
    9d00:	e1a05003 	mov	r5, r3
    9d04:	e5953004 	ldr	r3, [r5, #4]
    9d08:	e2833001 	add	r3, r3, #1	; 0x1
    9d0c:	e5853004 	str	r3, [r5, #4]
    9d10:	e597306c 	ldr	r3, [r7, #108]
    9d14:	e3530000 	cmp	r3, #0	; 0x0
    9d18:	02433001 	subeq	r3, r3, #1	; 0x1
    9d1c:	0587306c 	streq	r3, [r7, #108]
    9d20:	0affffd8 	beq	9c88 <_IO_fwrite+0x100>
    9d24:	eaffffa7 	b	9bc8 <_IO_fwrite+0x40>
    9d28:	e1a00005 	mov	r0, r5
    9d2c:	eb0038ab 	bl	17fe0 <__lll_lock_wait_private>
    9d30:	eafffff0 	b	9cf8 <_IO_fwrite+0x170>
    9d34:	e5973000 	ldr	r3, [r7]
    9d38:	e3130902 	tst	r3, #32768	; 0x8000
    9d3c:	e1a08000 	mov	r8, r0
    9d40:	1a00001f 	bne	9dc4 <_IO_fwrite+0x23c>
    9d44:	e5976048 	ldr	r6, [r7, #72]
    9d48:	e5963004 	ldr	r3, [r6, #4]
    9d4c:	e2433001 	sub	r3, r3, #1	; 0x1
    9d50:	e3530000 	cmp	r3, #0	; 0x0
    9d54:	e5863004 	str	r3, [r6, #4]
    9d58:	1a000019 	bne	9dc4 <_IO_fwrite+0x23c>
    9d5c:	e5863008 	str	r3, [r6, #8]
    9d60:	e5965000 	ldr	r5, [r6]
    9d64:	e3a01000 	mov	r1, #0	; 0x0
    9d68:	e1a02006 	mov	r2, r6
    9d6c:	e1a04005 	mov	r4, r5
    9d70:	e5923000 	ldr	r3, [r2]
    9d74:	e1530004 	cmp	r3, r4
    9d78:	1a000005 	bne	9d94 <_IO_fwrite+0x20c>
    9d7c:	e1a00004 	mov	r0, r4
    9d80:	e3e03a0f 	mvn	r3, #61440	; 0xf000
    9d84:	e1a0e00f 	mov	lr, pc
    9d88:	e243f03f 	sub	pc, r3, #63	; 0x3f
    9d8c:	3afffff7 	bcc	9d70 <_IO_fwrite+0x1e8>
    9d90:	e1a03004 	mov	r3, r4
    9d94:	e1550003 	cmp	r5, r3
    9d98:	1afffff0 	bne	9d60 <_IO_fwrite+0x1d8>
    9d9c:	e3550001 	cmp	r5, #1	; 0x1
    9da0:	da000007 	ble	9dc4 <_IO_fwrite+0x23c>
    9da4:	ebfffc41 	bl	8eb0 <__aeabi_read_tp>
    9da8:	e5102498 	ldr	r2, [r0, #-1176]
    9dac:	e1a03001 	mov	r3, r1
    9db0:	e1a00006 	mov	r0, r6
    9db4:	e3821001 	orr	r1, r2, #1	; 0x1
    9db8:	e3a070f0 	mov	r7, #240	; 0xf0
    9dbc:	e3a02001 	mov	r2, #1	; 0x1
    9dc0:	ef000000 	svc	0x00000000
    9dc4:	e1a00008 	mov	r0, r8
    9dc8:	eb0168e9 	bl	64174 <_Unwind_Resume>

00009dcc <__fcloseall>:
    9dcc:	e92d4010 	push	{r4, lr}
    9dd0:	eb0014dc 	bl	f148 <_IO_cleanup>
    9dd4:	e8bd4010 	pop	{r4, lr}
    9dd8:	e12fff1e 	bx	lr

00009ddc <__libc_message>:
    9ddc:	e92d000e 	push	{r1, r2, r3}
    9de0:	e92d4ff0 	push	{r4, r5, r6, r7, r8, r9, sl, fp, lr}
    9de4:	e28db020 	add	fp, sp, #32	; 0x20
    9de8:	e24dde51 	sub	sp, sp, #1296	; 0x510
    9dec:	e28b3008 	add	r3, fp, #8	; 0x8
    9df0:	e50b052c 	str	r0, [fp, #-1324]
    9df4:	e59f037c 	ldr	r0, [pc, #892]	; a178 <__libc_message+0x39c>
    9df8:	e50b3028 	str	r3, [fp, #-40]
    9dfc:	e50b3024 	str	r3, [fp, #-36]
    9e00:	eb007df4 	bl	295d8 <__secure_getenv>
    9e04:	e3500000 	cmp	r0, #0	; 0x0
    9e08:	0a000002 	beq	9e18 <__libc_message+0x3c>
    9e0c:	e5d03000 	ldrb	r3, [r0]
    9e10:	e3530000 	cmp	r3, #0	; 0x0
    9e14:	1a000070 	bne	9fdc <__libc_message+0x200>
    9e18:	e3a01c09 	mov	r1, #2304	; 0x900
    9e1c:	e2811002 	add	r1, r1, #2	; 0x2
    9e20:	e59f0354 	ldr	r0, [pc, #852]	; a17c <__libc_message+0x3a0>
    9e24:	e3a07005 	mov	r7, #5	; 0x5
    9e28:	ef000000 	svc	0x00000000
    9e2c:	e3700a01 	cmn	r0, #4096	; 0x1000
    9e30:	e1a09000 	mov	r9, r0
    9e34:	8a00006f 	bhi	9ff8 <__libc_message+0x21c>
    9e38:	e3700001 	cmn	r0, #1	; 0x1
    9e3c:	0a000066 	beq	9fdc <__libc_message+0x200>
    9e40:	e59b2004 	ldr	r2, [fp, #4]
    9e44:	e5d24000 	ldrb	r4, [r2]
    9e48:	e3540000 	cmp	r4, #0	; 0x0
    9e4c:	0a000056 	beq	9fac <__libc_message+0x1d0>
    9e50:	e59b2004 	ldr	r2, [fp, #4]
    9e54:	e3a06000 	mov	r6, #0	; 0x0
    9e58:	e1a07002 	mov	r7, r2
    9e5c:	e1a08006 	mov	r8, r6
    9e60:	e1a00004 	mov	r0, r4
    9e64:	e1a03000 	mov	r3, r0
    9e68:	e3530025 	cmp	r3, #37	; 0x25
    9e6c:	12820001 	addne	r0, r2, #1	; 0x1
    9e70:	1a000003 	bne	9e84 <__libc_message+0xa8>
    9e74:	e5d23001 	ldrb	r3, [r2, #1]
    9e78:	e3530073 	cmp	r3, #115	; 0x73
    9e7c:	e2820001 	add	r0, r2, #1	; 0x1
    9e80:	0a000005 	beq	9e9c <__libc_message+0xc0>
    9e84:	e3a01025 	mov	r1, #37	; 0x25
    9e88:	eb0032e9 	bl	16a34 <__strchrnul>
    9e8c:	e5d03000 	ldrb	r3, [r0]
    9e90:	e3530000 	cmp	r3, #0	; 0x0
    9e94:	e1a02000 	mov	r2, r0
    9e98:	1afffff2 	bne	9e68 <__libc_message+0x8c>
    9e9c:	e3540025 	cmp	r4, #37	; 0x25
    9ea0:	0a000012 	beq	9ef0 <__libc_message+0x114>
    9ea4:	e1a04007 	mov	r4, r7
    9ea8:	e0670002 	rsb	r0, r7, r2
    9eac:	e1a07002 	mov	r7, r2
    9eb0:	e24dd018 	sub	sp, sp, #24	; 0x18
    9eb4:	e1a0200d 	mov	r2, sp
    9eb8:	e1a031a2 	lsr	r3, r2, #3
    9ebc:	e1a03183 	lsl	r3, r3, #3
    9ec0:	e5836008 	str	r6, [r3, #8]
    9ec4:	e5834000 	str	r4, [r3]
    9ec8:	e5830004 	str	r0, [r3, #4]
    9ecc:	e5d70000 	ldrb	r0, [r7]
    9ed0:	e3500000 	cmp	r0, #0	; 0x0
    9ed4:	e1a06003 	mov	r6, r3
    9ed8:	e2885001 	add	r5, r8, #1	; 0x1
    9edc:	e1a04000 	mov	r4, r0
    9ee0:	e1a02007 	mov	r2, r7
    9ee4:	0a00000c 	beq	9f1c <__libc_message+0x140>
    9ee8:	e1a08005 	mov	r8, r5
    9eec:	eaffffdc 	b	9e64 <__libc_message+0x88>
    9ef0:	e5d73001 	ldrb	r3, [r7, #1]
    9ef4:	e3530073 	cmp	r3, #115	; 0x73
    9ef8:	1affffe9 	bne	9ea4 <__libc_message+0xc8>
    9efc:	e51b3024 	ldr	r3, [fp, #-36]
    9f00:	e5934000 	ldr	r4, [r3]
    9f04:	e2833004 	add	r3, r3, #4	; 0x4
    9f08:	e50b3024 	str	r3, [fp, #-36]
    9f0c:	e1a00004 	mov	r0, r4
    9f10:	e2877002 	add	r7, r7, #2	; 0x2
    9f14:	eb002e7d 	bl	15910 <strlen>
    9f18:	eaffffe4 	b	9eb0 <__libc_message+0xd4>
    9f1c:	e1a03185 	lsl	r3, r5, #3
    9f20:	e2833008 	add	r3, r3, #8	; 0x8
    9f24:	e04dd003 	sub	sp, sp, r3
    9f28:	e1a0300d 	mov	r3, sp
    9f2c:	e1a021a3 	lsr	r2, r3, #3
    9f30:	e1a0a182 	lsl	sl, r2, #3
    9f34:	e1a03188 	lsl	r3, r8, #3
    9f38:	e08ac003 	add	ip, sl, r3
    9f3c:	e1a01006 	mov	r1, r6
    9f40:	e1a0e008 	mov	lr, r8
    9f44:	e1a04000 	mov	r4, r0
    9f48:	e5912004 	ldr	r2, [r1, #4]
    9f4c:	e5913000 	ldr	r3, [r1]
    9f50:	e24ee001 	sub	lr, lr, #1	; 0x1
    9f54:	e37e0001 	cmn	lr, #1	; 0x1
    9f58:	e58c3000 	str	r3, [ip]
    9f5c:	e58c2004 	str	r2, [ip, #4]
    9f60:	e0844002 	add	r4, r4, r2
    9f64:	e5911008 	ldr	r1, [r1, #8]
    9f68:	e24cc008 	sub	ip, ip, #8	; 0x8
    9f6c:	1afffff5 	bne	9f48 <__libc_message+0x16c>
    9f70:	e1a02005 	mov	r2, r5
    9f74:	e1a0100a 	mov	r1, sl
    9f78:	e1a00009 	mov	r0, r9
    9f7c:	e3a07092 	mov	r7, #146	; 0x92
    9f80:	ef000000 	svc	0x00000000
    9f84:	e3700004 	cmn	r0, #4	; 0x4
    9f88:	13a03000 	movne	r3, #0	; 0x0
    9f8c:	03a03001 	moveq	r3, #1	; 0x1
    9f90:	e3700a01 	cmn	r0, #4096	; 0x1000
    9f94:	93a03000 	movls	r3, #0	; 0x0
    9f98:	e3530000 	cmp	r3, #0	; 0x0
    9f9c:	1afffff3 	bne	9f70 <__libc_message+0x194>
    9fa0:	e1540000 	cmp	r4, r0
    9fa4:	02833001 	addeq	r3, r3, #1	; 0x1
    9fa8:	0a000004 	beq	9fc0 <__libc_message+0x1e4>
    9fac:	e59b1004 	ldr	r1, [fp, #4]
    9fb0:	e3a00003 	mov	r0, #3	; 0x3
    9fb4:	e51b2028 	ldr	r2, [fp, #-40]
    9fb8:	eb00371b 	bl	17c2c <__vsyslog>
    9fbc:	e3a03000 	mov	r3, #0	; 0x0
    9fc0:	e51b252c 	ldr	r2, [fp, #-1324]
    9fc4:	e3520000 	cmp	r2, #0	; 0x0
    9fc8:	1a000005 	bne	9fe4 <__libc_message+0x208>
    9fcc:	e24bd020 	sub	sp, fp, #32	; 0x20
    9fd0:	e8bd4ff0 	pop	{r4, r5, r6, r7, r8, r9, sl, fp, lr}
    9fd4:	e28dd00c 	add	sp, sp, #12	; 0xc
    9fd8:	e12fff1e 	bx	lr
    9fdc:	e3a09002 	mov	r9, #2	; 0x2
    9fe0:	eaffff96 	b	9e40 <__libc_message+0x64>
    9fe4:	e3520001 	cmp	r2, #1	; 0x1
    9fe8:	da000001 	ble	9ff4 <__libc_message+0x218>
    9fec:	e3530000 	cmp	r3, #0	; 0x0
    9ff0:	1a000007 	bne	a014 <__libc_message+0x238>
    9ff4:	ebfffbb5 	bl	8ed0 <abort>
    9ff8:	e59f3180 	ldr	r3, [pc, #384]	; a180 <__libc_message+0x3a4>
    9ffc:	e2602000 	rsb	r2, r0, #0	; 0x0
    a000:	e79f3003 	ldr	r3, [pc, r3]
    a004:	ebfffba9 	bl	8eb0 <__aeabi_read_tp>
    a008:	e7802003 	str	r2, [r0, r3]
    a00c:	e3a09002 	mov	r9, #2	; 0x2
    a010:	eaffff8a 	b	9e40 <__libc_message+0x64>
    a014:	e24b0f4a 	sub	r0, fp, #296	; 0x128
    a018:	e3a01040 	mov	r1, #64	; 0x40
    a01c:	eb003985 	bl	18638 <__backtrace>
    a020:	e3500002 	cmp	r0, #2	; 0x2
    a024:	e1a04000 	mov	r4, r0
    a028:	dafffff1 	ble	9ff4 <__libc_message+0x218>
    a02c:	e3a0201d 	mov	r2, #29	; 0x1d
    a030:	e59f114c 	ldr	r1, [pc, #332]	; a184 <__libc_message+0x3a8>
    a034:	e1a00009 	mov	r0, r9
    a038:	e3a07004 	mov	r7, #4	; 0x4
    a03c:	ef000000 	svc	0x00000000
    a040:	e3700a01 	cmn	r0, #4096	; 0x1000
    a044:	e1a02000 	mov	r2, r0
    a048:	9a000004 	bls	a060 <__libc_message+0x284>
    a04c:	e59f3134 	ldr	r3, [pc, #308]	; a188 <__libc_message+0x3ac>
    a050:	ebfffb96 	bl	8eb0 <__aeabi_read_tp>
    a054:	e79f3003 	ldr	r3, [pc, r3]
    a058:	e2622000 	rsb	r2, r2, #0	; 0x0
    a05c:	e7802003 	str	r2, [r0, r3]
    a060:	e2441001 	sub	r1, r4, #1	; 0x1
    a064:	e24b0f49 	sub	r0, fp, #292	; 0x124
    a068:	e1a02009 	mov	r2, r9
    a06c:	eb0039ab 	bl	18720 <__backtrace_symbols_fd>
    a070:	e3a07004 	mov	r7, #4	; 0x4
    a074:	e3a0201d 	mov	r2, #29	; 0x1d
    a078:	e59f110c 	ldr	r1, [pc, #268]	; a18c <__libc_message+0x3b0>
    a07c:	e1a00009 	mov	r0, r9
    a080:	ef000000 	svc	0x00000000
    a084:	e3700a01 	cmn	r0, #4096	; 0x1000
    a088:	e1a02000 	mov	r2, r0
    a08c:	9a000004 	bls	a0a4 <__libc_message+0x2c8>
    a090:	e59f30f8 	ldr	r3, [pc, #248]	; a190 <__libc_message+0x3b4>
    a094:	ebfffb85 	bl	8eb0 <__aeabi_read_tp>
    a098:	e79f3003 	ldr	r3, [pc, r3]
    a09c:	e2622000 	rsb	r2, r2, #0	; 0x0
    a0a0:	e7802003 	str	r2, [r0, r3]
    a0a4:	e3a01000 	mov	r1, #0	; 0x0
    a0a8:	e59f00e4 	ldr	r0, [pc, #228]	; a194 <__libc_message+0x3b8>
    a0ac:	e3a07005 	mov	r7, #5	; 0x5
    a0b0:	ef000000 	svc	0x00000000
    a0b4:	e3700a01 	cmn	r0, #4096	; 0x1000
    a0b8:	e1a02000 	mov	r2, r0
    a0bc:	91a05000 	movls	r5, r0
    a0c0:	9a000005 	bls	a0dc <__libc_message+0x300>
    a0c4:	e59f30cc 	ldr	r3, [pc, #204]	; a198 <__libc_message+0x3bc>
    a0c8:	ebfffb78 	bl	8eb0 <__aeabi_read_tp>
    a0cc:	e79f3003 	ldr	r3, [pc, r3]
    a0d0:	e2622000 	rsb	r2, r2, #0	; 0x0
    a0d4:	e7802003 	str	r2, [r0, r3]
    a0d8:	e3e05000 	mvn	r5, #0	; 0x0
    a0dc:	e24b6e52 	sub	r6, fp, #1312	; 0x520
    a0e0:	e2466008 	sub	r6, r6, #8	; 0x8
    a0e4:	e59f80b0 	ldr	r8, [pc, #176]	; a19c <__libc_message+0x3c0>
    a0e8:	ea00000b 	b	a11c <__libc_message+0x340>
    a0ec:	e3500000 	cmp	r0, #0	; 0x0
    a0f0:	da000016 	ble	a150 <__libc_message+0x374>
    a0f4:	e1a02004 	mov	r2, r4
    a0f8:	e1a00009 	mov	r0, r9
    a0fc:	e3a07004 	mov	r7, #4	; 0x4
    a100:	ef000000 	svc	0x00000000
    a104:	e3700a01 	cmn	r0, #4096	; 0x1000
    a108:	e1a02000 	mov	r2, r0
    a10c:	91a00000 	movls	r0, r0
    a110:	8a000012 	bhi	a160 <__libc_message+0x384>
    a114:	e1540000 	cmp	r4, r0
    a118:	1a00000c 	bne	a150 <__libc_message+0x374>
    a11c:	e3a02b01 	mov	r2, #1024	; 0x400
    a120:	e1a01006 	mov	r1, r6
    a124:	e1a00005 	mov	r0, r5
    a128:	e3a07003 	mov	r7, #3	; 0x3
    a12c:	ef000000 	svc	0x00000000
    a130:	e3700a01 	cmn	r0, #4096	; 0x1000
    a134:	e1a04000 	mov	r4, r0
    a138:	9affffeb 	bls	a0ec <__libc_message+0x310>
    a13c:	e59f305c 	ldr	r3, [pc, #92]	; a1a0 <__libc_message+0x3c4>
    a140:	ebfffb5a 	bl	8eb0 <__aeabi_read_tp>
    a144:	e79f3003 	ldr	r3, [pc, r3]
    a148:	e2642000 	rsb	r2, r4, #0	; 0x0
    a14c:	e7802003 	str	r2, [r0, r3]
    a150:	e1a00005 	mov	r0, r5
    a154:	e3a07006 	mov	r7, #6	; 0x6
    a158:	ef000000 	svc	0x00000000
    a15c:	ebfffb5b 	bl	8ed0 <abort>
    a160:	ebfffb52 	bl	8eb0 <__aeabi_read_tp>
    a164:	e2622000 	rsb	r2, r2, #0	; 0x0
    a168:	e79f3008 	ldr	r3, [pc, r8]
    a16c:	e7802003 	str	r2, [r0, r3]
    a170:	e3e00000 	mvn	r0, #0	; 0x0
    a174:	eaffffe6 	b	a114 <__libc_message+0x338>
    a178:	00066138 	.word	0x00066138
    a17c:	0006614c 	.word	0x0006614c
    a180:	000790dc 	.word	0x000790dc
    a184:	00066158 	.word	0x00066158
    a188:	00079088 	.word	0x00079088
    a18c:	00066178 	.word	0x00066178
    a190:	00079044 	.word	0x00079044
    a194:	00066198 	.word	0x00066198
    a198:	00079010 	.word	0x00079010
    a19c:	00078f74 	.word	0x00078f74
    a1a0:	00078f98 	.word	0x00078f98

0000a1a4 <__libc_fatal>:
    a1a4:	e1a04000 	mov	r4, r0
    a1a8:	e3a00001 	mov	r0, #1	; 0x1
    a1ac:	e59f1008 	ldr	r1, [pc, #8]	; a1bc <__libc_fatal+0x18>
    a1b0:	e1a02004 	mov	r2, r4
    a1b4:	ebffff08 	bl	9ddc <__libc_message>
    a1b8:	eafffffa 	b	a1a8 <__libc_fatal+0x4>
    a1bc:	00079ce4 	.word	0x00079ce4

0000a1c0 <_IO_wfile_underflow_maybe_mmap>:
    a1c0:	e92d4010 	push	{r4, lr}
    a1c4:	e1a04000 	mov	r4, r0
    a1c8:	eb000694 	bl	bc20 <_IO_file_underflow_maybe_mmap>
    a1cc:	e3700001 	cmn	r0, #1	; 0x1
    a1d0:	1594205c 	ldrne	r2, [r4, #92]
    a1d4:	11a00004 	movne	r0, r4
    a1d8:	159230b8 	ldrne	r3, [r2, #184]
    a1dc:	1593c010 	ldrne	ip, [r3, #16]
    a1e0:	11a0e00f 	movne	lr, pc
    a1e4:	112fff1c 	bxne	ip
    a1e8:	e8bd4010 	pop	{r4, lr}
    a1ec:	e12fff1e 	bx	lr

0000a1f0 <_IO_wfile_underflow_mmap>:
    a1f0:	e92d4030 	push	{r4, r5, lr}
    a1f4:	e5903000 	ldr	r3, [r0]
    a1f8:	e3130004 	tst	r3, #4	; 0x4
    a1fc:	e24dd01c 	sub	sp, sp, #28	; 0x1c
    a200:	e1a04000 	mov	r4, r0
    a204:	1a000046 	bne	a324 <_IO_wfile_underflow_mmap+0x134>
    a208:	e590205c 	ldr	r2, [r0, #92]
    a20c:	e892000a 	ldm	r2, {r1, r3}
    a210:	e1510003 	cmp	r1, r3
    a214:	35910000 	ldrcc	r0, [r1]
    a218:	3a00002d 	bcc	a2d4 <_IO_wfile_underflow_mmap+0xe4>
    a21c:	e994000a 	ldmib	r4, {r1, r3}
    a220:	e1510003 	cmp	r1, r3
    a224:	e5945058 	ldr	r5, [r4, #88]
    a228:	2a00002c 	bcs	a2e0 <_IO_wfile_underflow_mmap+0xf0>
    a22c:	e5923018 	ldr	r3, [r2, #24]
    a230:	e3530000 	cmp	r3, #0	; 0x0
    a234:	e58d1014 	str	r1, [sp, #20]
    a238:	0a00002e 	beq	a2f8 <_IO_wfile_underflow_mmap+0x108>
    a23c:	e282302c 	add	r3, r2, #44	; 0x2c
    a240:	e8930003 	ldm	r3, {r0, r1}
    a244:	e2822034 	add	r2, r2, #52	; 0x34
    a248:	e8820003 	stm	r2, {r0, r1}
    a24c:	e594105c 	ldr	r1, [r4, #92]
    a250:	e5912018 	ldr	r2, [r1, #24]
    a254:	e28d3014 	add	r3, sp, #20	; 0x14
    a258:	e5812008 	str	r2, [r1, #8]
    a25c:	e5812000 	str	r2, [r1]
    a260:	e58d3000 	str	r3, [sp]
    a264:	e5912000 	ldr	r2, [r1]
    a268:	e58d2004 	str	r2, [sp, #4]
    a26c:	e591c01c 	ldr	ip, [r1, #28]
    a270:	e2810004 	add	r0, r1, #4	; 0x4
    a274:	e994000c 	ldmib	r4, {r2, r3}
    a278:	e281102c 	add	r1, r1, #44	; 0x2c
    a27c:	e58d000c 	str	r0, [sp, #12]
    a280:	e58dc008 	str	ip, [sp, #8]
    a284:	e1a00005 	mov	r0, r5
    a288:	e595c00c 	ldr	ip, [r5, #12]
    a28c:	e1a0e00f 	mov	lr, pc
    a290:	e12fff1c 	bx	ip
    a294:	e594305c 	ldr	r3, [r4, #92]
    a298:	e8930005 	ldm	r3, {r0, r2}
    a29c:	e59d3014 	ldr	r3, [sp, #20]
    a2a0:	e1500002 	cmp	r0, r2
    a2a4:	e5843004 	str	r3, [r4, #4]
    a2a8:	35900000 	ldrcc	r0, [r0]
    a2ac:	3a000008 	bcc	a2d4 <_IO_wfile_underflow_mmap+0xe4>
    a2b0:	e59f3090 	ldr	r3, [pc, #144]	; a348 <_IO_wfile_underflow_mmap+0x158>
    a2b4:	ebfffafd 	bl	8eb0 <__aeabi_read_tp>
    a2b8:	e79f3003 	ldr	r3, [pc, r3]
    a2bc:	e3a01054 	mov	r1, #84	; 0x54
    a2c0:	e7801003 	str	r1, [r0, r3]
    a2c4:	e5942000 	ldr	r2, [r4]
    a2c8:	e3822020 	orr	r2, r2, #32	; 0x20
    a2cc:	e5842000 	str	r2, [r4]
    a2d0:	e3e00000 	mvn	r0, #0	; 0x0
    a2d4:	e28dd01c 	add	sp, sp, #28	; 0x1c
    a2d8:	e8bd4030 	pop	{r4, r5, lr}
    a2dc:	e12fff1e 	bx	lr
    a2e0:	eb00074b 	bl	c014 <_IO_file_underflow_mmap>
    a2e4:	e3700001 	cmn	r0, #1	; 0x1
    a2e8:	0afffff9 	beq	a2d4 <_IO_wfile_underflow_mmap+0xe4>
    a2ec:	e5941004 	ldr	r1, [r4, #4]
    a2f0:	e594205c 	ldr	r2, [r4, #92]
    a2f4:	eaffffcc 	b	a22c <_IO_wfile_underflow_mmap+0x3c>
    a2f8:	e5920020 	ldr	r0, [r2, #32]
    a2fc:	e3500000 	cmp	r0, #0	; 0x0
    a300:	0a000003 	beq	a314 <_IO_wfile_underflow_mmap+0x124>
    a304:	eb001e1c 	bl	11b7c <__cfree>
    a308:	e5943000 	ldr	r3, [r4]
    a30c:	e3c33c01 	bic	r3, r3, #256	; 0x100
    a310:	e5843000 	str	r3, [r4]
    a314:	e1a00004 	mov	r0, r4
    a318:	eb00af90 	bl	36160 <_IO_wdoallocbuf>
    a31c:	e594205c 	ldr	r2, [r4, #92]
    a320:	eaffffc5 	b	a23c <_IO_wfile_underflow_mmap+0x4c>
    a324:	e3833020 	orr	r3, r3, #32	; 0x20
    a328:	e5803000 	str	r3, [r0]
    a32c:	e59f2018 	ldr	r2, [pc, #24]	; a34c <_IO_wfile_underflow_mmap+0x15c>
    a330:	ebfffade 	bl	8eb0 <__aeabi_read_tp>
    a334:	e79f2002 	ldr	r2, [pc, r2]
    a338:	e3a03009 	mov	r3, #9	; 0x9
    a33c:	e7803002 	str	r3, [r0, r2]
    a340:	e3e00000 	mvn	r0, #0	; 0x0
    a344:	eaffffe2 	b	a2d4 <_IO_wfile_underflow_mmap+0xe4>
    a348:	00078e24 	.word	0x00078e24
    a34c:	00078da8 	.word	0x00078da8

0000a350 <_IO_wfile_seekoff>:
    a350:	e92d4ff0 	push	{r4, r5, r6, r7, r8, r9, sl, fp, lr}
    a354:	e1a06000 	mov	r6, r0
    a358:	e590005c 	ldr	r0, [r0, #92]
    a35c:	e24ddd42 	sub	sp, sp, #4224	; 0x1080
    a360:	e5901008 	ldr	r1, [r0, #8]
    a364:	e590c004 	ldr	ip, [r0, #4]
    a368:	e24dd00c 	sub	sp, sp, #12	; 0xc
    a36c:	e151000c 	cmp	r1, ip
    a370:	e28d1a01 	add	r1, sp, #4096	; 0x1000
    a374:	e1a07002 	mov	r7, r2
    a378:	e1a08003 	mov	r8, r3
    a37c:	e28150b0 	add	r5, r1, #176	; 0xb0
    a380:	e8950420 	ldm	r5, {r5, sl}
    a384:	13a09000 	movne	r9, #0	; 0x0
    a388:	0a00011e 	beq	a808 <_IO_wfile_seekoff+0x4b8>
    a38c:	e35a0000 	cmp	sl, #0	; 0x0
    a390:	1a00000b 	bne	a3c4 <_IO_wfile_seekoff+0x74>
    a394:	e5963000 	ldr	r3, [r6]
    a398:	e3130c01 	tst	r3, #256	; 0x100
    a39c:	0a000005 	beq	a3b8 <_IO_wfile_seekoff+0x68>
    a3a0:	e5903000 	ldr	r3, [r0]
    a3a4:	e15c0003 	cmp	ip, r3
    a3a8:	8a00016a 	bhi	a958 <_IO_wfile_seekoff+0x608>
    a3ac:	e1a00006 	mov	r0, r6
    a3b0:	eb00ac39 	bl	3549c <_IO_switch_to_main_wget_area>
    a3b4:	e596005c 	ldr	r0, [r6, #92]
    a3b8:	e3a07000 	mov	r7, #0	; 0x0
    a3bc:	e3a08000 	mov	r8, #0	; 0x0
    a3c0:	e3a05001 	mov	r5, #1	; 0x1
    a3c4:	e5902010 	ldr	r2, [r0, #16]
    a3c8:	e590300c 	ldr	r3, [r0, #12]
    a3cc:	e1520003 	cmp	r2, r3
    a3d0:	8a000068 	bhi	a578 <_IO_wfile_seekoff+0x228>
    a3d4:	e5963000 	ldr	r3, [r6]
    a3d8:	e3130b02 	tst	r3, #2048	; 0x800
    a3dc:	1a000065 	bne	a578 <_IO_wfile_seekoff+0x228>
    a3e0:	e5903018 	ldr	r3, [r0, #24]
    a3e4:	e3530000 	cmp	r3, #0	; 0x0
    a3e8:	0a000112 	beq	a838 <_IO_wfile_seekoff+0x4e8>
    a3ec:	e3550001 	cmp	r5, #1	; 0x1
    a3f0:	0a000068 	beq	a598 <_IO_wfile_seekoff+0x248>
    a3f4:	e3550002 	cmp	r5, #2	; 0x2
    a3f8:	0a00007d 	beq	a5f4 <_IO_wfile_seekoff+0x2a4>
    a3fc:	e35a0000 	cmp	sl, #0	; 0x0
    a400:	0a000056 	beq	a560 <_IO_wfile_seekoff+0x210>
    a404:	e2862050 	add	r2, r6, #80	; 0x50
    a408:	e8920006 	ldm	r2, {r1, r2}
    a40c:	e3710001 	cmn	r1, #1	; 0x1
    a410:	0a0000b4 	beq	a6e8 <_IO_wfile_seekoff+0x398>
    a414:	e596c00c 	ldr	ip, [r6, #12]
    a418:	e35c0000 	cmp	ip, #0	; 0x0
    a41c:	0a0000b3 	beq	a6f0 <_IO_wfile_seekoff+0x3a0>
    a420:	e5960000 	ldr	r0, [r6]
    a424:	e3100c01 	tst	r0, #256	; 0x100
    a428:	1a0000b1 	bne	a6f4 <_IO_wfile_seekoff+0x3a4>
    a42c:	e5963008 	ldr	r3, [r6, #8]
    a430:	e06c3003 	rsb	r3, ip, r3
    a434:	e1a0a003 	mov	sl, r3
    a438:	e1a0bfca 	asr	fp, sl, #31
    a43c:	e1a0300a 	mov	r3, sl
    a440:	e1a0400b 	mov	r4, fp
    a444:	e0533001 	subs	r3, r3, r1
    a448:	e0c44002 	sbc	r4, r4, r2
    a44c:	e0933007 	adds	r3, r3, r7
    a450:	e0a44008 	adc	r4, r4, r8
    a454:	e3540000 	cmp	r4, #0	; 0x0
    a458:	ba0000a5 	blt	a6f4 <_IO_wfile_seekoff+0x3a4>
    a45c:	e154000b 	cmp	r4, fp
    a460:	ca0000a3 	bgt	a6f4 <_IO_wfile_seekoff+0x3a4>
    a464:	0a000143 	beq	a978 <_IO_wfile_seekoff+0x628>
    a468:	e596201c 	ldr	r2, [r6, #28]
    a46c:	e08c3003 	add	r3, ip, r3
    a470:	e596c05c 	ldr	ip, [r6, #92]
    a474:	e5863004 	str	r3, [r6, #4]
    a478:	e5862018 	str	r2, [r6, #24]
    a47c:	e5862014 	str	r2, [r6, #20]
    a480:	e5862010 	str	r2, [r6, #16]
    a484:	e28c3034 	add	r3, ip, #52	; 0x34
    a488:	e8930003 	ldm	r3, {r0, r1}
    a48c:	e28cc02c 	add	ip, ip, #44	; 0x2c
    a490:	e596a058 	ldr	sl, [r6, #88]
    a494:	e88c0003 	stm	ip, {r0, r1}
    a498:	e596105c 	ldr	r1, [r6, #92]
    a49c:	e5913008 	ldr	r3, [r1, #8]
    a4a0:	e596200c 	ldr	r2, [r6, #12]
    a4a4:	e5813000 	str	r3, [r1]
    a4a8:	e28d3a01 	add	r3, sp, #4096	; 0x1000
    a4ac:	e5832084 	str	r2, [r3, #132]
    a4b0:	e28d4048 	add	r4, sp, #72	; 0x48
    a4b4:	e28dbd42 	add	fp, sp, #4224	; 0x1080
    a4b8:	e5963004 	ldr	r3, [r6, #4]
    a4bc:	e2444030 	sub	r4, r4, #48	; 0x30
    a4c0:	e28bb004 	add	fp, fp, #4	; 0x4
    a4c4:	e28d9d42 	add	r9, sp, #4224	; 0x1080
    a4c8:	ea000000 	b	a4d0 <_IO_wfile_seekoff+0x180>
    a4cc:	e596105c 	ldr	r1, [r6, #92]
    a4d0:	e28d0a01 	add	r0, sp, #4096	; 0x1000
    a4d4:	e2800018 	add	r0, r0, #24	; 0x18
    a4d8:	e58d0008 	str	r0, [sp, #8]
    a4dc:	e281102c 	add	r1, r1, #44	; 0x2c
    a4e0:	e58db000 	str	fp, [sp]
    a4e4:	e58d4004 	str	r4, [sp, #4]
    a4e8:	e58d900c 	str	r9, [sp, #12]
    a4ec:	e1a0000a 	mov	r0, sl
    a4f0:	e59ac00c 	ldr	ip, [sl, #12]
    a4f4:	e1a0e00f 	mov	lr, pc
    a4f8:	e12fff1c 	bx	ip
    a4fc:	e3500001 	cmp	r0, #1	; 0x1
    a500:	8a00011f 	bhi	a984 <_IO_wfile_seekoff+0x634>
    a504:	e28d1a01 	add	r1, sp, #4096	; 0x1000
    a508:	e5963004 	ldr	r3, [r6, #4]
    a50c:	e5912084 	ldr	r2, [r1, #132]
    a510:	e1530002 	cmp	r3, r2
    a514:	1affffec 	bne	a4cc <_IO_wfile_seekoff+0x17c>
    a518:	e596305c 	ldr	r3, [r6, #92]
    a51c:	e5962000 	ldr	r2, [r6]
    a520:	e596c054 	ldr	ip, [r6, #84]
    a524:	e5931008 	ldr	r1, [r3, #8]
    a528:	e3c22010 	bic	r2, r2, #16	; 0x10
    a52c:	e35c0000 	cmp	ip, #0	; 0x0
    a530:	e5862000 	str	r2, [r6]
    a534:	e5831000 	str	r1, [r3]
    a538:	e5962050 	ldr	r2, [r6, #80]
    a53c:	ba000007 	blt	a560 <_IO_wfile_seekoff+0x210>
    a540:	e3a03000 	mov	r3, #0	; 0x0
    a544:	e58d3000 	str	r3, [sp]
    a548:	e1a00006 	mov	r0, r6
    a54c:	e1a0300c 	mov	r3, ip
    a550:	e596c098 	ldr	ip, [r6, #152]
    a554:	e59cc040 	ldr	ip, [ip, #64]
    a558:	e1a0e00f 	mov	lr, pc
    a55c:	e12fff1c 	bx	ip
    a560:	e1a01008 	mov	r1, r8
    a564:	e1a00007 	mov	r0, r7
    a568:	e28dd08c 	add	sp, sp, #140	; 0x8c
    a56c:	e28dda01 	add	sp, sp, #4096	; 0x1000
    a570:	e8bd4ff0 	pop	{r4, r5, r6, r7, r8, r9, sl, fp, lr}
    a574:	e12fff1e 	bx	lr
    a578:	e1a00006 	mov	r0, r6
    a57c:	eb00abf2 	bl	3554c <_IO_switch_to_wget_mode>
    a580:	e3500000 	cmp	r0, #0	; 0x0
    a584:	13e07000 	mvnne	r7, #0	; 0x0
    a588:	13a08000 	movne	r8, #0	; 0x0
    a58c:	1afffff3 	bne	a560 <_IO_wfile_seekoff+0x210>
    a590:	e596005c 	ldr	r0, [r6, #92]
    a594:	eaffff91 	b	a3e0 <_IO_wfile_seekoff+0x90>
    a598:	e5964058 	ldr	r4, [r6, #88]
    a59c:	e1a00004 	mov	r0, r4
    a5a0:	e594c010 	ldr	ip, [r4, #16]
    a5a4:	e1a0e00f 	mov	lr, pc
    a5a8:	e12fff1c 	bx	ip
    a5ac:	e3500000 	cmp	r0, #0	; 0x0
    a5b0:	da0000bc 	ble	a8a8 <_IO_wfile_seekoff+0x558>
    a5b4:	e596305c 	ldr	r3, [r6, #92]
    a5b8:	e8930006 	ldm	r3, {r1, r2}
    a5bc:	e0422001 	sub	r2, r2, r1
    a5c0:	e1a02142 	asr	r2, r2, #2
    a5c4:	e0030092 	mul	r3, r2, r0
    a5c8:	e1a04fc3 	asr	r4, r3, #31
    a5cc:	e0577003 	subs	r7, r7, r3
    a5d0:	e0c88004 	sbc	r8, r8, r4
    a5d4:	e2864050 	add	r4, r6, #80	; 0x50
    a5d8:	e8940018 	ldm	r4, {r3, r4}
    a5dc:	e3730001 	cmn	r3, #1	; 0x1
    a5e0:	0a0000ad 	beq	a89c <_IO_wfile_seekoff+0x54c>
    a5e4:	e0977003 	adds	r7, r7, r3
    a5e8:	e0a88004 	adc	r8, r8, r4
    a5ec:	e3a05000 	mov	r5, #0	; 0x0
    a5f0:	eaffff81 	b	a3fc <_IO_wfile_seekoff+0xac>
    a5f4:	e28d1a01 	add	r1, sp, #4096	; 0x1000
    a5f8:	e5963098 	ldr	r3, [r6, #152]
    a5fc:	e1a00006 	mov	r0, r6
    a600:	e2811018 	add	r1, r1, #24	; 0x18
    a604:	e593c048 	ldr	ip, [r3, #72]
    a608:	e1a0e00f 	mov	lr, pc
    a60c:	e12fff1c 	bx	ip
    a610:	e3500000 	cmp	r0, #0	; 0x0
    a614:	0a000027 	beq	a6b8 <_IO_wfile_seekoff+0x368>
    a618:	e1a00006 	mov	r0, r6
    a61c:	eb000faa 	bl	e4cc <_IO_unsave_markers>
    a620:	e58d5000 	str	r5, [sp]
    a624:	e1a02007 	mov	r2, r7
    a628:	e1a03008 	mov	r3, r8
    a62c:	e596c098 	ldr	ip, [r6, #152]
    a630:	e1a00006 	mov	r0, r6
    a634:	e59cc040 	ldr	ip, [ip, #64]
    a638:	e1a0e00f 	mov	lr, pc
    a63c:	e12fff1c 	bx	ip
    a640:	e3700001 	cmn	r0, #1	; 0x1
    a644:	e1a0e000 	mov	lr, r0
    a648:	e1a07001 	mov	r7, r1
    a64c:	0a000073 	beq	a820 <_IO_wfile_seekoff+0x4d0>
    a650:	e596205c 	ldr	r2, [r6, #92]
    a654:	e5961000 	ldr	r1, [r6]
    a658:	e596301c 	ldr	r3, [r6, #28]
    a65c:	e5920018 	ldr	r0, [r2, #24]
    a660:	e1a0c007 	mov	ip, r7
    a664:	e3c11010 	bic	r1, r1, #16	; 0x10
    a668:	e1a05007 	mov	r5, r7
    a66c:	e5867054 	str	r7, [r6, #84]
    a670:	e1a0400e 	mov	r4, lr
    a674:	e5820014 	str	r0, [r2, #20]
    a678:	e5861000 	str	r1, [r6]
    a67c:	e5863018 	str	r3, [r6, #24]
    a680:	e586e050 	str	lr, [r6, #80]
    a684:	e586300c 	str	r3, [r6, #12]
    a688:	e5863004 	str	r3, [r6, #4]
    a68c:	e5863008 	str	r3, [r6, #8]
    a690:	e5863014 	str	r3, [r6, #20]
    a694:	e5863010 	str	r3, [r6, #16]
    a698:	e5820008 	str	r0, [r2, #8]
    a69c:	e5820000 	str	r0, [r2]
    a6a0:	e5820004 	str	r0, [r2, #4]
    a6a4:	e5820010 	str	r0, [r2, #16]
    a6a8:	e582000c 	str	r0, [r2, #12]
    a6ac:	e1a0700e 	mov	r7, lr
    a6b0:	e1a0800c 	mov	r8, ip
    a6b4:	eaffffa9 	b	a560 <_IO_wfile_seekoff+0x210>
    a6b8:	e28d2a01 	add	r2, sp, #4096	; 0x1000
    a6bc:	e5923028 	ldr	r3, [r2, #40]
    a6c0:	e2033a0f 	and	r3, r3, #61440	; 0xf000
    a6c4:	e3530902 	cmp	r3, #32768	; 0x8000
    a6c8:	1affffd2 	bne	a618 <_IO_wfile_seekoff+0x2c8>
    a6cc:	e28d1d41 	add	r1, sp, #4160	; 0x1040
    a6d0:	e2811010 	add	r1, r1, #16	; 0x10
    a6d4:	e9110018 	ldmdb	r1, {r3, r4}
    a6d8:	e0977003 	adds	r7, r7, r3
    a6dc:	e0a88004 	adc	r8, r8, r4
    a6e0:	e1a05000 	mov	r5, r0
    a6e4:	eaffff44 	b	a3fc <_IO_wfile_seekoff+0xac>
    a6e8:	e3720001 	cmn	r2, #1	; 0x1
    a6ec:	1affff48 	bne	a414 <_IO_wfile_seekoff+0xc4>
    a6f0:	e5960000 	ldr	r0, [r6]
    a6f4:	e3100004 	tst	r0, #4	; 0x4
    a6f8:	1affffc6 	bne	a618 <_IO_wfile_seekoff+0x2c8>
    a6fc:	e286101c 	add	r1, r6, #28	; 0x1c
    a700:	e8910006 	ldm	r1, {r1, r2}
    a704:	e0623001 	rsb	r3, r2, r1
    a708:	e1a04fc3 	asr	r4, r3, #31
    a70c:	e0612002 	rsb	r2, r1, r2
    a710:	e0070003 	and	r0, r7, r3
    a714:	e0081004 	and	r1, r8, r4
    a718:	e1a05008 	mov	r5, r8
    a71c:	e1a04007 	mov	r4, r7
    a720:	e0544000 	subs	r4, r4, r0
    a724:	e0c55001 	sbc	r5, r5, r1
    a728:	e1a03fc2 	asr	r3, r2, #31
    a72c:	e1550003 	cmp	r5, r3
    a730:	ca000099 	bgt	a99c <_IO_wfile_seekoff+0x64c>
    a734:	0a000096 	beq	a994 <_IO_wfile_seekoff+0x644>
    a738:	e3a03000 	mov	r3, #0	; 0x0
    a73c:	e58d3000 	str	r3, [sp]
    a740:	e1a02000 	mov	r2, r0
    a744:	e1a03001 	mov	r3, r1
    a748:	e596c098 	ldr	ip, [r6, #152]
    a74c:	e1a00006 	mov	r0, r6
    a750:	e59cc040 	ldr	ip, [ip, #64]
    a754:	e1a0e00f 	mov	lr, pc
    a758:	e12fff1c 	bx	ip
    a75c:	e3510000 	cmp	r1, #0	; 0x0
    a760:	e58d0010 	str	r0, [sp, #16]
    a764:	e58d1014 	str	r1, [sp, #20]
    a768:	b3e07000 	mvnlt	r7, #0	; 0x0
    a76c:	b3e08000 	mvnlt	r8, #0	; 0x0
    a770:	baffff7a 	blt	a560 <_IO_wfile_seekoff+0x210>
    a774:	e1940005 	orrs	r0, r4, r5
    a778:	0a00008c 	beq	a9b0 <_IO_wfile_seekoff+0x660>
    a77c:	e5963098 	ldr	r3, [r6, #152]
    a780:	e3590000 	cmp	r9, #0	; 0x0
    a784:	e593c038 	ldr	ip, [r3, #56]
    a788:	e596101c 	ldr	r1, [r6, #28]
    a78c:	05963020 	ldreq	r3, [r6, #32]
    a790:	11a02004 	movne	r2, r4
    a794:	00612003 	rsbeq	r2, r1, r3
    a798:	e1a00006 	mov	r0, r6
    a79c:	e1a0e00f 	mov	lr, pc
    a7a0:	e12fff1c 	bx	ip
    a7a4:	e1a0a000 	mov	sl, r0
    a7a8:	e1a0bfca 	asr	fp, sl, #31
    a7ac:	e155000b 	cmp	r5, fp
    a7b0:	ca00005d 	bgt	a92c <_IO_wfile_seekoff+0x5dc>
    a7b4:	0a00005a 	beq	a924 <_IO_wfile_seekoff+0x5d4>
    a7b8:	e1a0c000 	mov	ip, r0
    a7bc:	e28d1010 	add	r1, sp, #16	; 0x10
    a7c0:	e8910003 	ldm	r1, {r0, r1}
    a7c4:	e596201c 	ldr	r2, [r6, #28]
    a7c8:	e5963000 	ldr	r3, [r6]
    a7cc:	e09aa000 	adds	sl, sl, r0
    a7d0:	e0abb001 	adc	fp, fp, r1
    a7d4:	e082000c 	add	r0, r2, ip
    a7d8:	e0821004 	add	r1, r2, r4
    a7dc:	e3c33010 	bic	r3, r3, #16	; 0x10
    a7e0:	e5863000 	str	r3, [r6]
    a7e4:	e5861004 	str	r1, [r6, #4]
    a7e8:	e5860008 	str	r0, [r6, #8]
    a7ec:	e5862018 	str	r2, [r6, #24]
    a7f0:	e586a050 	str	sl, [r6, #80]
    a7f4:	e586b054 	str	fp, [r6, #84]
    a7f8:	e586200c 	str	r2, [r6, #12]
    a7fc:	e5862014 	str	r2, [r6, #20]
    a800:	e5862010 	str	r2, [r6, #16]
    a804:	eaffff55 	b	a560 <_IO_wfile_seekoff+0x210>
    a808:	e280200c 	add	r2, r0, #12	; 0xc
    a80c:	e892000c 	ldm	r2, {r2, r3}
    a810:	e1520003 	cmp	r2, r3
    a814:	13a09000 	movne	r9, #0	; 0x0
    a818:	03a09001 	moveq	r9, #1	; 0x1
    a81c:	eafffeda 	b	a38c <_IO_wfile_seekoff+0x3c>
    a820:	e3710001 	cmn	r1, #1	; 0x1
    a824:	1affff89 	bne	a650 <_IO_wfile_seekoff+0x300>
    a828:	e1a03001 	mov	r3, r1
    a82c:	e1a07001 	mov	r7, r1
    a830:	e1a08003 	mov	r8, r3
    a834:	eaffff49 	b	a560 <_IO_wfile_seekoff+0x210>
    a838:	e5900008 	ldr	r0, [r0, #8]
    a83c:	e3500000 	cmp	r0, #0	; 0x0
    a840:	0a000003 	beq	a854 <_IO_wfile_seekoff+0x504>
    a844:	eb001ccc 	bl	11b7c <__cfree>
    a848:	e5963000 	ldr	r3, [r6]
    a84c:	e3c33c01 	bic	r3, r3, #256	; 0x100
    a850:	e5863000 	str	r3, [r6]
    a854:	e1a00006 	mov	r0, r6
    a858:	eb000e55 	bl	e1b4 <_IO_doallocbuf>
    a85c:	e596305c 	ldr	r3, [r6, #92]
    a860:	e596201c 	ldr	r2, [r6, #28]
    a864:	e5931018 	ldr	r1, [r3, #24]
    a868:	e5862008 	str	r2, [r6, #8]
    a86c:	e5831004 	str	r1, [r3, #4]
    a870:	e5862014 	str	r2, [r6, #20]
    a874:	e5862010 	str	r2, [r6, #16]
    a878:	e5862018 	str	r2, [r6, #24]
    a87c:	e586200c 	str	r2, [r6, #12]
    a880:	e5862004 	str	r2, [r6, #4]
    a884:	e5831010 	str	r1, [r3, #16]
    a888:	e583100c 	str	r1, [r3, #12]
    a88c:	e5831014 	str	r1, [r3, #20]
    a890:	e5831008 	str	r1, [r3, #8]
    a894:	e5831000 	str	r1, [r3]
    a898:	eafffed3 	b	a3ec <_IO_wfile_seekoff+0x9c>
    a89c:	e3740001 	cmn	r4, #1	; 0x1
    a8a0:	1affff4f 	bne	a5e4 <_IO_wfile_seekoff+0x294>
    a8a4:	eaffff5b 	b	a618 <_IO_wfile_seekoff+0x2c8>
    a8a8:	e596c05c 	ldr	ip, [r6, #92]
    a8ac:	e28c3034 	add	r3, ip, #52	; 0x34
    a8b0:	e8930003 	ldm	r3, {r0, r1}
    a8b4:	e28c202c 	add	r2, ip, #44	; 0x2c
    a8b8:	e8820003 	stm	r2, {r0, r1}
    a8bc:	e59c3008 	ldr	r3, [ip, #8]
    a8c0:	e59c0000 	ldr	r0, [ip]
    a8c4:	e596105c 	ldr	r1, [r6, #92]
    a8c8:	e0630000 	rsb	r0, r3, r0
    a8cc:	e1a00140 	asr	r0, r0, #2
    a8d0:	e596200c 	ldr	r2, [r6, #12]
    a8d4:	e5963008 	ldr	r3, [r6, #8]
    a8d8:	e281102c 	add	r1, r1, #44	; 0x2c
    a8dc:	e58d0000 	str	r0, [sp]
    a8e0:	e1a00004 	mov	r0, r4
    a8e4:	e594c018 	ldr	ip, [r4, #24]
    a8e8:	e1a0e00f 	mov	lr, pc
    a8ec:	e12fff1c 	bx	ip
    a8f0:	e596200c 	ldr	r2, [r6, #12]
    a8f4:	e5963008 	ldr	r3, [r6, #8]
    a8f8:	e596c05c 	ldr	ip, [r6, #92]
    a8fc:	e0623003 	rsb	r3, r2, r3
    a900:	e59c1000 	ldr	r1, [ip]
    a904:	e0603003 	rsb	r3, r0, r3
    a908:	e0822000 	add	r2, r2, r0
    a90c:	e1a04fc3 	asr	r4, r3, #31
    a910:	e58c1004 	str	r1, [ip, #4]
    a914:	e5862004 	str	r2, [r6, #4]
    a918:	e0577003 	subs	r7, r7, r3
    a91c:	e0c88004 	sbc	r8, r8, r4
    a920:	eaffff2b 	b	a5d4 <_IO_wfile_seekoff+0x284>
    a924:	e154000a 	cmp	r4, sl
    a928:	9affffa2 	bls	a7b8 <_IO_wfile_seekoff+0x468>
    a92c:	e3700001 	cmn	r0, #1	; 0x1
    a930:	01a08005 	moveq	r8, r5
    a934:	01a07004 	moveq	r7, r4
    a938:	03a05001 	moveq	r5, #1	; 0x1
    a93c:	0affff35 	beq	a618 <_IO_wfile_seekoff+0x2c8>
    a940:	e1a08005 	mov	r8, r5
    a944:	e1a07004 	mov	r7, r4
    a948:	e057700a 	subs	r7, r7, sl
    a94c:	e0c8800b 	sbc	r8, r8, fp
    a950:	e3a05001 	mov	r5, #1	; 0x1
    a954:	eaffff2f 	b	a618 <_IO_wfile_seekoff+0x2c8>
    a958:	e59f3060 	ldr	r3, [pc, #96]	; a9c0 <_IO_wfile_seekoff+0x670>
    a95c:	ebfff953 	bl	8eb0 <__aeabi_read_tp>
    a960:	e79f3003 	ldr	r3, [pc, r3]
    a964:	e3a02016 	mov	r2, #22	; 0x16
    a968:	e7802003 	str	r2, [r0, r3]
    a96c:	e3e07000 	mvn	r7, #0	; 0x0
    a970:	e3e08000 	mvn	r8, #0	; 0x0
    a974:	eafffef9 	b	a560 <_IO_wfile_seekoff+0x210>
    a978:	e153000a 	cmp	r3, sl
    a97c:	8affff5c 	bhi	a6f4 <_IO_wfile_seekoff+0x3a4>
    a980:	eafffeb8 	b	a468 <_IO_wfile_seekoff+0x118>
    a984:	e5963000 	ldr	r3, [r6]
    a988:	e3833020 	orr	r3, r3, #32	; 0x20
    a98c:	e5863000 	str	r3, [r6]
    a990:	eaffff20 	b	a618 <_IO_wfile_seekoff+0x2c8>
    a994:	e1540002 	cmp	r4, r2
    a998:	9affff66 	bls	a738 <_IO_wfile_seekoff+0x3e8>
    a99c:	e1a00007 	mov	r0, r7
    a9a0:	e1a01008 	mov	r1, r8
    a9a4:	e3a04000 	mov	r4, #0	; 0x0
    a9a8:	e3a05000 	mov	r5, #0	; 0x0
    a9ac:	eaffff61 	b	a738 <_IO_wfile_seekoff+0x3e8>
    a9b0:	e1a0c000 	mov	ip, r0
    a9b4:	e3a0a000 	mov	sl, #0	; 0x0
    a9b8:	e3a0b000 	mov	fp, #0	; 0x0
    a9bc:	eaffff7e 	b	a7bc <_IO_wfile_seekoff+0x46c>
    a9c0:	0007877c 	.word	0x0007877c

0000a9c4 <_IO_wfile_underflow>:
    a9c4:	e92d47f0 	push	{r4, r5, r6, r7, r8, r9, sl, lr}
    a9c8:	e5903000 	ldr	r3, [r0]
    a9cc:	e3130004 	tst	r3, #4	; 0x4
    a9d0:	e24dd018 	sub	sp, sp, #24	; 0x18
    a9d4:	e1a05000 	mov	r5, r0
    a9d8:	1a00012b 	bne	ae8c <_IO_wfile_underflow+0x4c8>
    a9dc:	e590205c 	ldr	r2, [r0, #92]
    a9e0:	e8920009 	ldm	r2, {r0, r3}
    a9e4:	e1500003 	cmp	r0, r3
    a9e8:	3a000074 	bcc	abc0 <_IO_wfile_underflow+0x1fc>
    a9ec:	e995000a 	ldmib	r5, {r1, r3}
    a9f0:	e1510003 	cmp	r1, r3
    a9f4:	e5958058 	ldr	r8, [r5, #88]
    a9f8:	3a000083 	bcc	ac0c <_IO_wfile_underflow+0x248>
    a9fc:	e595201c 	ldr	r2, [r5, #28]
    aa00:	e5852008 	str	r2, [r5, #8]
    aa04:	e5852004 	str	r2, [r5, #4]
    aa08:	e585200c 	str	r2, [r5, #12]
    aa0c:	e3520000 	cmp	r2, #0	; 0x0
    aa10:	0a0000f5 	beq	adec <_IO_wfile_underflow+0x428>
    aa14:	e595005c 	ldr	r0, [r5, #92]
    aa18:	e5903018 	ldr	r3, [r0, #24]
    aa1c:	e3530000 	cmp	r3, #0	; 0x0
    aa20:	e5852010 	str	r2, [r5, #16]
    aa24:	e5852018 	str	r2, [r5, #24]
    aa28:	e5852014 	str	r2, [r5, #20]
    aa2c:	0a0000e4 	beq	adc4 <_IO_wfile_underflow+0x400>
    aa30:	e5953000 	ldr	r3, [r5]
    aa34:	e3c33f7f 	bic	r3, r3, #508	; 0x1fc
    aa38:	e3c33001 	bic	r3, r3, #1	; 0x1
    aa3c:	e1a03b03 	lsl	r3, r3, #22
    aa40:	e1a03b23 	lsr	r3, r3, #22
    aa44:	e3530000 	cmp	r3, #0	; 0x0
    aa48:	0a00000c 	beq	aa80 <_IO_wfile_underflow+0xbc>
    aa4c:	e59f9500 	ldr	r9, [pc, #1280]	; af54 <_IO_wfile_underflow+0x590>
    aa50:	e5996000 	ldr	r6, [r9]
    aa54:	e5963000 	ldr	r3, [r6]
    aa58:	e2134902 	ands	r4, r3, #32768	; 0x8000
    aa5c:	0a0000b7 	beq	ad40 <_IO_wfile_underflow+0x37c>
    aa60:	e5992000 	ldr	r2, [r9]
    aa64:	e5923000 	ldr	r3, [r2]
    aa68:	e2033fa2 	and	r3, r3, #648	; 0x288
    aa6c:	e3530d0a 	cmp	r3, #640	; 0x280
    aa70:	0a0000ec 	beq	ae28 <_IO_wfile_underflow+0x464>
    aa74:	e5963000 	ldr	r3, [r6]
    aa78:	e3130902 	tst	r3, #32768	; 0x8000
    aa7c:	0a00008e 	beq	acbc <_IO_wfile_underflow+0x2f8>
    aa80:	e1a00005 	mov	r0, r5
    aa84:	eb000c23 	bl	db18 <_IO_switch_to_get_mode>
    aa88:	e595305c 	ldr	r3, [r5, #92]
    aa8c:	e5932018 	ldr	r2, [r3, #24]
    aa90:	e5951008 	ldr	r1, [r5, #8]
    aa94:	e583200c 	str	r2, [r3, #12]
    aa98:	e5832000 	str	r2, [r3]
    aa9c:	e5832008 	str	r2, [r3, #8]
    aaa0:	e5832004 	str	r2, [r3, #4]
    aaa4:	e5832014 	str	r2, [r3, #20]
    aaa8:	e5832010 	str	r2, [r3, #16]
    aaac:	e3a07000 	mov	r7, #0	; 0x0
    aab0:	e5952020 	ldr	r2, [r5, #32]
    aab4:	e28d6014 	add	r6, sp, #20	; 0x14
    aab8:	ea000031 	b	ab84 <_IO_wfile_underflow+0x1c0>
    aabc:	e5953008 	ldr	r3, [r5, #8]
    aac0:	e2852050 	add	r2, r5, #80	; 0x50
    aac4:	e8920006 	ldm	r2, {r1, r2}
    aac8:	e0833000 	add	r3, r3, r0
    aacc:	e3710001 	cmn	r1, #1	; 0x1
    aad0:	e5853008 	str	r3, [r5, #8]
    aad4:	0a00003d 	beq	abd0 <_IO_wfile_underflow+0x20c>
    aad8:	e1a03000 	mov	r3, r0
    aadc:	e1a04fc3 	asr	r4, r3, #31
    aae0:	e0933001 	adds	r3, r3, r1
    aae4:	e0a44002 	adc	r4, r4, r2
    aae8:	e5853050 	str	r3, [r5, #80]
    aaec:	e5854054 	str	r4, [r5, #84]
    aaf0:	e595205c 	ldr	r2, [r5, #92]
    aaf4:	e282302c 	add	r3, r2, #44	; 0x2c
    aaf8:	e8930003 	ldm	r3, {r0, r1}
    aafc:	e2822034 	add	r2, r2, #52	; 0x34
    ab00:	e8820003 	stm	r2, {r0, r1}
    ab04:	e58d6000 	str	r6, [sp]
    ab08:	e595105c 	ldr	r1, [r5, #92]
    ab0c:	e5913004 	ldr	r3, [r1, #4]
    ab10:	e58d3004 	str	r3, [sp, #4]
    ab14:	e5952004 	ldr	r2, [r5, #4]
    ab18:	e591c01c 	ldr	ip, [r1, #28]
    ab1c:	e2810004 	add	r0, r1, #4	; 0x4
    ab20:	e5953008 	ldr	r3, [r5, #8]
    ab24:	e281102c 	add	r1, r1, #44	; 0x2c
    ab28:	e58dc008 	str	ip, [sp, #8]
    ab2c:	e58d000c 	str	r0, [sp, #12]
    ab30:	e585200c 	str	r2, [r5, #12]
    ab34:	e1a00008 	mov	r0, r8
    ab38:	e598c00c 	ldr	ip, [r8, #12]
    ab3c:	e1a0e00f 	mov	lr, pc
    ab40:	e12fff1c 	bx	ip
    ab44:	e595c05c 	ldr	ip, [r5, #92]
    ab48:	e59c1004 	ldr	r1, [ip, #4]
    ab4c:	e59c3018 	ldr	r3, [ip, #24]
    ab50:	e59d2014 	ldr	r2, [sp, #20]
    ab54:	e1510003 	cmp	r1, r3
    ab58:	e5852004 	str	r2, [r5, #4]
    ab5c:	1a000095 	bne	adb8 <_IO_wfile_underflow+0x3f4>
    ab60:	e3500002 	cmp	r0, #2	; 0x2
    ab64:	0a00008f 	beq	ada8 <_IO_wfile_underflow+0x3e4>
    ab68:	e5951008 	ldr	r1, [r5, #8]
    ab6c:	e5952020 	ldr	r2, [r5, #32]
    ab70:	e1510002 	cmp	r1, r2
    ab74:	0a00008b 	beq	ada8 <_IO_wfile_underflow+0x3e4>
    ab78:	e3500001 	cmp	r0, #1	; 0x1
    ab7c:	1a0000b0 	bne	ae44 <_IO_wfile_underflow+0x480>
    ab80:	e2877001 	add	r7, r7, #1	; 0x1
    ab84:	e0612002 	rsb	r2, r1, r2
    ab88:	e5953098 	ldr	r3, [r5, #152]
    ab8c:	e1a00005 	mov	r0, r5
    ab90:	e593c038 	ldr	ip, [r3, #56]
    ab94:	e1a0e00f 	mov	lr, pc
    ab98:	e12fff1c 	bx	ip
    ab9c:	e3500000 	cmp	r0, #0	; 0x0
    aba0:	caffffc5 	bgt	aabc <_IO_wfile_underflow+0xf8>
    aba4:	e1970000 	orrs	r0, r7, r0
    aba8:	1a00000b 	bne	abdc <_IO_wfile_underflow+0x218>
    abac:	e5953000 	ldr	r3, [r5]
    abb0:	e3833010 	orr	r3, r3, #16	; 0x10
    abb4:	e5853000 	str	r3, [r5]
    abb8:	e3e00000 	mvn	r0, #0	; 0x0
    abbc:	ea000000 	b	abc4 <_IO_wfile_underflow+0x200>
    abc0:	e5900000 	ldr	r0, [r0]
    abc4:	e28dd018 	add	sp, sp, #24	; 0x18
    abc8:	e8bd47f0 	pop	{r4, r5, r6, r7, r8, r9, sl, lr}
    abcc:	e12fff1e 	bx	lr
    abd0:	e3720001 	cmn	r2, #1	; 0x1
    abd4:	1affffbf 	bne	aad8 <_IO_wfile_underflow+0x114>
    abd8:	eaffffc4 	b	aaf0 <_IO_wfile_underflow+0x12c>
    abdc:	e5953000 	ldr	r3, [r5]
    abe0:	e3570000 	cmp	r7, #0	; 0x0
    abe4:	e3833020 	orr	r3, r3, #32	; 0x20
    abe8:	e5853000 	str	r3, [r5]
    abec:	0a000030 	beq	acb4 <_IO_wfile_underflow+0x2f0>
    abf0:	e59f3360 	ldr	r3, [pc, #864]	; af58 <_IO_wfile_underflow+0x594>
    abf4:	ebfff8ad 	bl	8eb0 <__aeabi_read_tp>
    abf8:	e79f3003 	ldr	r3, [pc, r3]
    abfc:	e3a02054 	mov	r2, #84	; 0x54
    ac00:	e7802003 	str	r2, [r0, r3]
    ac04:	e3e00000 	mvn	r0, #0	; 0x0
    ac08:	eaffffed 	b	abc4 <_IO_wfile_underflow+0x200>
    ac0c:	e28dc018 	add	ip, sp, #24	; 0x18
    ac10:	e52c1008 	str	r1, [ip, #-8]!
    ac14:	e282302c 	add	r3, r2, #44	; 0x2c
    ac18:	e8930003 	ldm	r3, {r0, r1}
    ac1c:	e2822034 	add	r2, r2, #52	; 0x34
    ac20:	e8820003 	stm	r2, {r0, r1}
    ac24:	e595105c 	ldr	r1, [r5, #92]
    ac28:	e5913018 	ldr	r3, [r1, #24]
    ac2c:	e5813008 	str	r3, [r1, #8]
    ac30:	e5813000 	str	r3, [r1]
    ac34:	e58dc000 	str	ip, [sp]
    ac38:	e5913000 	ldr	r3, [r1]
    ac3c:	e58d3004 	str	r3, [sp, #4]
    ac40:	e591c01c 	ldr	ip, [r1, #28]
    ac44:	e2810004 	add	r0, r1, #4	; 0x4
    ac48:	e995000c 	ldmib	r5, {r2, r3}
    ac4c:	e281102c 	add	r1, r1, #44	; 0x2c
    ac50:	e58dc008 	str	ip, [sp, #8]
    ac54:	e58d000c 	str	r0, [sp, #12]
    ac58:	e1a00008 	mov	r0, r8
    ac5c:	e598c00c 	ldr	ip, [r8, #12]
    ac60:	e1a0e00f 	mov	lr, pc
    ac64:	e12fff1c 	bx	ip
    ac68:	e595305c 	ldr	r3, [r5, #92]
    ac6c:	e1a0c000 	mov	ip, r0
    ac70:	e8930003 	ldm	r3, {r0, r1}
    ac74:	e5952004 	ldr	r2, [r5, #4]
    ac78:	e59d3010 	ldr	r3, [sp, #16]
    ac7c:	e1500001 	cmp	r0, r1
    ac80:	e585200c 	str	r2, [r5, #12]
    ac84:	e5853004 	str	r3, [r5, #4]
    ac88:	3affffcc 	bcc	abc0 <_IO_wfile_underflow+0x1fc>
    ac8c:	e35c0002 	cmp	ip, #2	; 0x2
    ac90:	1a000071 	bne	ae5c <_IO_wfile_underflow+0x498>
    ac94:	e59f32c0 	ldr	r3, [pc, #704]	; af5c <_IO_wfile_underflow+0x598>
    ac98:	ebfff884 	bl	8eb0 <__aeabi_read_tp>
    ac9c:	e79f3003 	ldr	r3, [pc, r3]
    aca0:	e3a01054 	mov	r1, #84	; 0x54
    aca4:	e7801003 	str	r1, [r0, r3]
    aca8:	e5952000 	ldr	r2, [r5]
    acac:	e3822020 	orr	r2, r2, #32	; 0x20
    acb0:	e5852000 	str	r2, [r5]
    acb4:	e3e00000 	mvn	r0, #0	; 0x0
    acb8:	eaffffc1 	b	abc4 <_IO_wfile_underflow+0x200>
    acbc:	e5966048 	ldr	r6, [r6, #72]
    acc0:	e5963004 	ldr	r3, [r6, #4]
    acc4:	e2433001 	sub	r3, r3, #1	; 0x1
    acc8:	e3530000 	cmp	r3, #0	; 0x0
    accc:	e5863004 	str	r3, [r6, #4]
    acd0:	1affff6a 	bne	aa80 <_IO_wfile_underflow+0xbc>
    acd4:	e5863008 	str	r3, [r6, #8]
    acd8:	e5967000 	ldr	r7, [r6]
    acdc:	e3a01000 	mov	r1, #0	; 0x0
    ace0:	e1a02006 	mov	r2, r6
    ace4:	e1a04007 	mov	r4, r7
    ace8:	e5923000 	ldr	r3, [r2]
    acec:	e1530004 	cmp	r3, r4
    acf0:	1a000005 	bne	ad0c <_IO_wfile_underflow+0x348>
    acf4:	e1a00004 	mov	r0, r4
    acf8:	e3e03a0f 	mvn	r3, #61440	; 0xf000
    acfc:	e1a0e00f 	mov	lr, pc
    ad00:	e243f03f 	sub	pc, r3, #63	; 0x3f
    ad04:	3afffff7 	bcc	ace8 <_IO_wfile_underflow+0x324>
    ad08:	e1a03004 	mov	r3, r4
    ad0c:	e1570003 	cmp	r7, r3
    ad10:	1afffff0 	bne	acd8 <_IO_wfile_underflow+0x314>
    ad14:	e3570001 	cmp	r7, #1	; 0x1
    ad18:	daffff58 	ble	aa80 <_IO_wfile_underflow+0xbc>
    ad1c:	ebfff863 	bl	8eb0 <__aeabi_read_tp>
    ad20:	e5102498 	ldr	r2, [r0, #-1176]
    ad24:	e1a03001 	mov	r3, r1
    ad28:	e1a00006 	mov	r0, r6
    ad2c:	e3821001 	orr	r1, r2, #1	; 0x1
    ad30:	e3a070f0 	mov	r7, #240	; 0xf0
    ad34:	e3a02001 	mov	r2, #1	; 0x1
    ad38:	ef000000 	svc	0x00000000
    ad3c:	eaffff4f 	b	aa80 <_IO_wfile_underflow+0xbc>
    ad40:	e5967048 	ldr	r7, [r6, #72]
    ad44:	ebfff859 	bl	8eb0 <__aeabi_read_tp>
    ad48:	e5973008 	ldr	r3, [r7, #8]
    ad4c:	e240ae4a 	sub	sl, r0, #1184	; 0x4a0
    ad50:	e153000a 	cmp	r3, sl
    ad54:	0a00000f 	beq	ad98 <_IO_wfile_underflow+0x3d4>
    ad58:	e3a01001 	mov	r1, #1	; 0x1
    ad5c:	e1a02007 	mov	r2, r7
    ad60:	e5923000 	ldr	r3, [r2]
    ad64:	e1530004 	cmp	r3, r4
    ad68:	1a000005 	bne	ad84 <_IO_wfile_underflow+0x3c0>
    ad6c:	e1a00004 	mov	r0, r4
    ad70:	e3e03a0f 	mvn	r3, #61440	; 0xf000
    ad74:	e1a0e00f 	mov	lr, pc
    ad78:	e243f03f 	sub	pc, r3, #63	; 0x3f
    ad7c:	3afffff7 	bcc	ad60 <_IO_wfile_underflow+0x39c>
    ad80:	e1a03004 	mov	r3, r4
    ad84:	e3530000 	cmp	r3, #0	; 0x0
    ad88:	1a000048 	bne	aeb0 <_IO_wfile_underflow+0x4ec>
    ad8c:	e5963048 	ldr	r3, [r6, #72]
    ad90:	e583a008 	str	sl, [r3, #8]
    ad94:	e1a07003 	mov	r7, r3
    ad98:	e5973004 	ldr	r3, [r7, #4]
    ad9c:	e2833001 	add	r3, r3, #1	; 0x1
    ada0:	e5873004 	str	r3, [r7, #4]
    ada4:	eaffff2d 	b	aa60 <_IO_wfile_underflow+0x9c>
    ada8:	e59f31b0 	ldr	r3, [pc, #432]	; af60 <_IO_wfile_underflow+0x59c>
    adac:	ebfff83f 	bl	8eb0 <__aeabi_read_tp>
    adb0:	e79f3003 	ldr	r3, [pc, r3]
    adb4:	eaffffb9 	b	aca0 <_IO_wfile_underflow+0x2dc>
    adb8:	e59c3000 	ldr	r3, [ip]
    adbc:	e5930000 	ldr	r0, [r3]
    adc0:	eaffff7f 	b	abc4 <_IO_wfile_underflow+0x200>
    adc4:	e5900020 	ldr	r0, [r0, #32]
    adc8:	e3500000 	cmp	r0, #0	; 0x0
    adcc:	0a000003 	beq	ade0 <_IO_wfile_underflow+0x41c>
    add0:	eb001b69 	bl	11b7c <__cfree>
    add4:	e5953000 	ldr	r3, [r5]
    add8:	e3c33c01 	bic	r3, r3, #256	; 0x100
    addc:	e5853000 	str	r3, [r5]
    ade0:	e1a00005 	mov	r0, r5
    ade4:	eb00acdd 	bl	36160 <_IO_wdoallocbuf>
    ade8:	eaffff10 	b	aa30 <_IO_wfile_underflow+0x6c>
    adec:	e5950024 	ldr	r0, [r5, #36]
    adf0:	e3500000 	cmp	r0, #0	; 0x0
    adf4:	0a000003 	beq	ae08 <_IO_wfile_underflow+0x444>
    adf8:	eb001b5f 	bl	11b7c <__cfree>
    adfc:	e5953000 	ldr	r3, [r5]
    ae00:	e3c33c01 	bic	r3, r3, #256	; 0x100
    ae04:	e5853000 	str	r3, [r5]
    ae08:	e1a00005 	mov	r0, r5
    ae0c:	eb000ce8 	bl	e1b4 <_IO_doallocbuf>
    ae10:	e595301c 	ldr	r3, [r5, #28]
    ae14:	e5853008 	str	r3, [r5, #8]
    ae18:	e5853004 	str	r3, [r5, #4]
    ae1c:	e585300c 	str	r3, [r5, #12]
    ae20:	e1a02003 	mov	r2, r3
    ae24:	eafffefa 	b	aa14 <_IO_wfile_underflow+0x50>
    ae28:	e1a00002 	mov	r0, r2
    ae2c:	e5923098 	ldr	r3, [r2, #152]
    ae30:	e3e01000 	mvn	r1, #0	; 0x0
    ae34:	e593c00c 	ldr	ip, [r3, #12]
    ae38:	e1a0e00f 	mov	lr, pc
    ae3c:	e12fff1c 	bx	ip
    ae40:	eaffff0b 	b	aa74 <_IO_wfile_underflow+0xb0>
    ae44:	e3a02f46 	mov	r2, #280	; 0x118
    ae48:	e2822003 	add	r2, r2, #3	; 0x3
    ae4c:	e59f0110 	ldr	r0, [pc, #272]	; af64 <_IO_wfile_underflow+0x5a0>
    ae50:	e59f1110 	ldr	r1, [pc, #272]	; af68 <_IO_wfile_underflow+0x5a4>
    ae54:	e59f3110 	ldr	r3, [pc, #272]	; af6c <_IO_wfile_underflow+0x5a8>
    ae58:	eb006373 	bl	23c2c <__assert_fail>
    ae5c:	e5952008 	ldr	r2, [r5, #8]
    ae60:	e1a01003 	mov	r1, r3
    ae64:	e0632002 	rsb	r2, r3, r2
    ae68:	e595001c 	ldr	r0, [r5, #28]
    ae6c:	eb002c33 	bl	15f40 <memmove>
    ae70:	e995000c 	ldmib	r5, {r2, r3}
    ae74:	e0433002 	sub	r3, r3, r2
    ae78:	e595201c 	ldr	r2, [r5, #28]
    ae7c:	e0823003 	add	r3, r2, r3
    ae80:	e985000c 	stmib	r5, {r2, r3}
    ae84:	e585200c 	str	r2, [r5, #12]
    ae88:	eafffedf 	b	aa0c <_IO_wfile_underflow+0x48>
    ae8c:	e3833020 	orr	r3, r3, #32	; 0x20
    ae90:	e5803000 	str	r3, [r0]
    ae94:	e59f20d4 	ldr	r2, [pc, #212]	; af70 <_IO_wfile_underflow+0x5ac>
    ae98:	ebfff804 	bl	8eb0 <__aeabi_read_tp>
    ae9c:	e79f2002 	ldr	r2, [pc, r2]
    aea0:	e3a03009 	mov	r3, #9	; 0x9
    aea4:	e7803002 	str	r3, [r0, r2]
    aea8:	e3e00000 	mvn	r0, #0	; 0x0
    aeac:	eaffff44 	b	abc4 <_IO_wfile_underflow+0x200>
    aeb0:	e1a00007 	mov	r0, r7
    aeb4:	eb003449 	bl	17fe0 <__lll_lock_wait_private>
    aeb8:	eaffffb3 	b	ad8c <_IO_wfile_underflow+0x3c8>
    aebc:	e5963000 	ldr	r3, [r6]
    aec0:	e3130902 	tst	r3, #32768	; 0x8000
    aec4:	e1a08000 	mov	r8, r0
    aec8:	1a00001f 	bne	af4c <_IO_wfile_underflow+0x588>
    aecc:	e5966048 	ldr	r6, [r6, #72]
    aed0:	e5963004 	ldr	r3, [r6, #4]
    aed4:	e2433001 	sub	r3, r3, #1	; 0x1
    aed8:	e3530000 	cmp	r3, #0	; 0x0
    aedc:	e5863004 	str	r3, [r6, #4]
    aee0:	1a000019 	bne	af4c <_IO_wfile_underflow+0x588>
    aee4:	e5863008 	str	r3, [r6, #8]
    aee8:	e5965000 	ldr	r5, [r6]
    aeec:	e3a01000 	mov	r1, #0	; 0x0
    aef0:	e1a02006 	mov	r2, r6
    aef4:	e1a04005 	mov	r4, r5
    aef8:	e5923000 	ldr	r3, [r2]
    aefc:	e1530004 	cmp	r3, r4
    af00:	1a000005 	bne	af1c <_IO_wfile_underflow+0x558>
    af04:	e1a00004 	mov	r0, r4
    af08:	e3e03a0f 	mvn	r3, #61440	; 0xf000
    af0c:	e1a0e00f 	mov	lr, pc
    af10:	e243f03f 	sub	pc, r3, #63	; 0x3f
    af14:	3afffff7 	bcc	aef8 <_IO_wfile_underflow+0x534>
    af18:	e1a03004 	mov	r3, r4
    af1c:	e1550003 	cmp	r5, r3
    af20:	1afffff0 	bne	aee8 <_IO_wfile_underflow+0x524>
    af24:	e3550001 	cmp	r5, #1	; 0x1
    af28:	da000007 	ble	af4c <_IO_wfile_underflow+0x588>
    af2c:	ebfff7df 	bl	8eb0 <__aeabi_read_tp>
    af30:	e5102498 	ldr	r2, [r0, #-1176]
    af34:	e1a03001 	mov	r3, r1
    af38:	e1a00006 	mov	r0, r6
    af3c:	e3821001 	orr	r1, r2, #1	; 0x1
    af40:	e3a070f0 	mov	r7, #240	; 0xf0
    af44:	e3a02001 	mov	r2, #1	; 0x1
    af48:	ef000000 	svc	0x00000000
    af4c:	e1a00008 	mov	r0, r8
    af50:	eb016487 	bl	64174 <_Unwind_Resume>
    af54:	00083544 	.word	0x00083544
    af58:	000784e4 	.word	0x000784e4
    af5c:	00078440 	.word	0x00078440
    af60:	0007832c 	.word	0x0007832c
    af64:	000662a4 	.word	0x000662a4
    af68:	000662c0 	.word	0x000662c0
    af6c:	000662cc 	.word	0x000662cc
    af70:	00078240 	.word	0x00078240

0000af74 <_IO_wdo_write>:
    af74:	e92d47f0 	push	{r4, r5, r6, r7, r8, r9, sl, lr}
    af78:	e2527000 	subs	r7, r2, #0	; 0x0
    af7c:	e24dd018 	sub	sp, sp, #24	; 0x18
    af80:	e1a04000 	mov	r4, r0
    af84:	e1a05001 	mov	r5, r1
    af88:	e5908058 	ldr	r8, [r0, #88]
    af8c:	0a00002e 	beq	b04c <_IO_wdo_write+0xd8>
    af90:	e5902018 	ldr	r2, [r0, #24]
    af94:	e590c014 	ldr	ip, [r0, #20]
    af98:	e152000c 	cmp	r2, ip
    af9c:	1a000002 	bne	afac <_IO_wdo_write+0x38>
    afa0:	e5901010 	ldr	r1, [r0, #16]
    afa4:	e1520001 	cmp	r2, r1
    afa8:	1a00003d 	bne	b0a4 <_IO_wdo_write+0x130>
    afac:	e284a014 	add	sl, r4, #20	; 0x14
    afb0:	e28d9014 	add	r9, sp, #20	; 0x14
    afb4:	ea000000 	b	afbc <_IO_wdo_write+0x48>
    afb8:	e594c014 	ldr	ip, [r4, #20]
    afbc:	e594105c 	ldr	r1, [r4, #92]
    afc0:	e5942020 	ldr	r2, [r4, #32]
    afc4:	e1a03107 	lsl	r3, r7, #2
    afc8:	e0853003 	add	r3, r5, r3
    afcc:	e58dc004 	str	ip, [sp, #4]
    afd0:	e58d2008 	str	r2, [sp, #8]
    afd4:	e281102c 	add	r1, r1, #44	; 0x2c
    afd8:	e1a02005 	mov	r2, r5
    afdc:	e58d9000 	str	r9, [sp]
    afe0:	e58da00c 	str	sl, [sp, #12]
    afe4:	e1a00008 	mov	r0, r8
    afe8:	e598c004 	ldr	ip, [r8, #4]
    afec:	e1a0e00f 	mov	lr, pc
    aff0:	e12fff1c 	bx	ip
    aff4:	e5941010 	ldr	r1, [r4, #16]
    aff8:	e1a06000 	mov	r6, r0
    affc:	e2843014 	add	r3, r4, #20	; 0x14
    b000:	e813000c 	ldmda	r3, {r2, r3}
    b004:	e0432002 	sub	r2, r3, r2
    b008:	e1a00004 	mov	r0, r4
    b00c:	eb00054f 	bl	c550 <_IO_new_do_write>
    b010:	e3700001 	cmn	r0, #1	; 0x1
    b014:	0a00001f 	beq	b098 <_IO_wdo_write+0x124>
    b018:	e59d2014 	ldr	r2, [sp, #20]
    b01c:	e3560000 	cmp	r6, #0	; 0x0
    b020:	e0653002 	rsb	r3, r5, r2
    b024:	e2831003 	add	r1, r3, #3	; 0x3
    b028:	e1a05002 	mov	r5, r2
    b02c:	e0477143 	sub	r7, r7, r3, asr #2
    b030:	0a000003 	beq	b044 <_IO_wdo_write+0xd0>
    b034:	e3560001 	cmp	r6, #1	; 0x1
    b038:	1a000003 	bne	b04c <_IO_wdo_write+0xd8>
    b03c:	e3510006 	cmp	r1, #6	; 0x6
    b040:	9a000001 	bls	b04c <_IO_wdo_write+0xd8>
    b044:	e3570000 	cmp	r7, #0	; 0x0
    b048:	1affffda 	bne	afb8 <_IO_wdo_write+0x44>
    b04c:	e5943000 	ldr	r3, [r4]
    b050:	e3c33f7f 	bic	r3, r3, #508	; 0x1fc
    b054:	e3c33001 	bic	r3, r3, #1	; 0x1
    b058:	e594005c 	ldr	r0, [r4, #92]
    b05c:	e1a03b03 	lsl	r3, r3, #22
    b060:	e1a03b23 	lsr	r3, r3, #22
    b064:	e5902018 	ldr	r2, [r0, #24]
    b068:	e3530000 	cmp	r3, #0	; 0x0
    b06c:	0590301c 	ldreq	r3, [r0, #28]
    b070:	11a03002 	movne	r3, r2
    b074:	e3570000 	cmp	r7, #0	; 0x0
    b078:	e5802008 	str	r2, [r0, #8]
    b07c:	e5802000 	str	r2, [r0]
    b080:	e5802004 	str	r2, [r0, #4]
    b084:	e5802010 	str	r2, [r0, #16]
    b088:	e580200c 	str	r2, [r0, #12]
    b08c:	e5803014 	str	r3, [r0, #20]
    b090:	01a00007 	moveq	r0, r7
    b094:	13e00000 	mvnne	r0, #0	; 0x0
    b098:	e28dd018 	add	sp, sp, #24	; 0x18
    b09c:	e8bd47f0 	pop	{r4, r5, r6, r7, r8, r9, sl, lr}
    b0a0:	e12fff1e 	bx	lr
    b0a4:	e0612002 	rsb	r2, r1, r2
    b0a8:	eb000528 	bl	c550 <_IO_new_do_write>
    b0ac:	e3700001 	cmn	r0, #1	; 0x1
    b0b0:	0afffff8 	beq	b098 <_IO_wdo_write+0x124>
    b0b4:	e594c014 	ldr	ip, [r4, #20]
    b0b8:	eaffffbb 	b	afac <_IO_wdo_write+0x38>

0000b0bc <_IO_wfile_xsputn>:
    b0bc:	e92d47f0 	push	{r4, r5, r6, r7, r8, r9, sl, lr}
    b0c0:	e2526000 	subs	r6, r2, #0	; 0x0
    b0c4:	e1a08000 	mov	r8, r0
    b0c8:	e1a05001 	mov	r5, r1
    b0cc:	01a00006 	moveq	r0, r6
    b0d0:	0a000032 	beq	b1a0 <_IO_wfile_xsputn+0xe4>
    b0d4:	e5983000 	ldr	r3, [r8]
    b0d8:	e598705c 	ldr	r7, [r8, #92]
    b0dc:	e2033c0a 	and	r3, r3, #2560	; 0xa00
    b0e0:	e3530c0a 	cmp	r3, #2560	; 0xa00
    b0e4:	e2870010 	add	r0, r7, #16	; 0x10
    b0e8:	e8900009 	ldm	r0, {r0, r3}
    b0ec:	10603003 	rsbne	r3, r0, r3
    b0f0:	11a02143 	asrne	r2, r3, #2
    b0f4:	1a000016 	bne	b154 <_IO_wfile_xsputn+0x98>
    b0f8:	e597301c 	ldr	r3, [r7, #28]
    b0fc:	e0603003 	rsb	r3, r0, r3
    b100:	e1a02143 	asr	r2, r3, #2
    b104:	e1560002 	cmp	r6, r2
    b108:	8a000011 	bhi	b154 <_IO_wfile_xsputn+0x98>
    b10c:	e1a03106 	lsl	r3, r6, #2
    b110:	e085c003 	add	ip, r5, r3
    b114:	e155000c 	cmp	r5, ip
    b118:	2a000022 	bcs	b1a8 <_IO_wfile_xsputn+0xec>
    b11c:	e51c3004 	ldr	r3, [ip, #-4]
    b120:	e353000a 	cmp	r3, #10	; 0xa
    b124:	e24cc004 	sub	ip, ip, #4	; 0x4
    b128:	0a000004 	beq	b140 <_IO_wfile_xsputn+0x84>
    b12c:	e155000c 	cmp	r5, ip
    b130:	2a00001c 	bcs	b1a8 <_IO_wfile_xsputn+0xec>
    b134:	e53c3004 	ldr	r3, [ip, #-4]!
    b138:	e353000a 	cmp	r3, #10	; 0xa
    b13c:	1afffffa 	bne	b12c <_IO_wfile_xsputn+0x70>
    b140:	e065300c 	rsb	r3, r5, ip
    b144:	e1a03143 	asr	r3, r3, #2
    b148:	e2832001 	add	r2, r3, #1	; 0x1
    b14c:	e3a0a001 	mov	sl, #1	; 0x1
    b150:	ea000000 	b	b158 <_IO_wfile_xsputn+0x9c>
    b154:	e3a0a000 	mov	sl, #0	; 0x0
    b158:	e3520000 	cmp	r2, #0	; 0x0
    b15c:	01a04006 	moveq	r4, r6
    b160:	1a000011 	bne	b1ac <_IO_wfile_xsputn+0xf0>
    b164:	e1a02004 	mov	r2, r4
    b168:	e1a00008 	mov	r0, r8
    b16c:	eb00a9f9 	bl	35958 <_IO_wdefault_xsputn>
    b170:	e0604004 	rsb	r4, r0, r4
    b174:	e35a0000 	cmp	sl, #0	; 0x0
    b178:	0a000007 	beq	b19c <_IO_wfile_xsputn+0xe0>
    b17c:	e598305c 	ldr	r3, [r8, #92]
    b180:	e283100c 	add	r1, r3, #12	; 0xc
    b184:	e8910006 	ldm	r1, {r1, r2}
    b188:	e1520001 	cmp	r2, r1
    b18c:	10612002 	rsbne	r2, r1, r2
    b190:	11a00008 	movne	r0, r8
    b194:	11a02142 	asrne	r2, r2, #2
    b198:	1bffff75 	blne	af74 <_IO_wdo_write>
    b19c:	e0640006 	rsb	r0, r4, r6
    b1a0:	e8bd47f0 	pop	{r4, r5, r6, r7, r8, r9, sl, lr}
    b1a4:	e12fff1e 	bx	lr
    b1a8:	e3a0a000 	mov	sl, #0	; 0x0
    b1ac:	e1520006 	cmp	r2, r6
    b1b0:	31a04002 	movcc	r4, r2
    b1b4:	21a04006 	movcs	r4, r6
    b1b8:	e3540014 	cmp	r4, #20	; 0x14
    b1bc:	8a000010 	bhi	b204 <_IO_wfile_xsputn+0x148>
    b1c0:	e3540000 	cmp	r4, #0	; 0x0
    b1c4:	0a00000a 	beq	b1f4 <_IO_wfile_xsputn+0x138>
    b1c8:	e3a01000 	mov	r1, #0	; 0x0
    b1cc:	e1a02001 	mov	r2, r1
    b1d0:	e7953002 	ldr	r3, [r5, r2]
    b1d4:	e2811001 	add	r1, r1, #1	; 0x1
    b1d8:	e1510004 	cmp	r1, r4
    b1dc:	e7803002 	str	r3, [r0, r2]
    b1e0:	e2822004 	add	r2, r2, #4	; 0x4
    b1e4:	1afffff9 	bne	b1d0 <_IO_wfile_xsputn+0x114>
    b1e8:	e1a03104 	lsl	r3, r4, #2
    b1ec:	e0800003 	add	r0, r0, r3
    b1f0:	e0851003 	add	r1, r5, r3
    b1f4:	e5870010 	str	r0, [r7, #16]
    b1f8:	e0564004 	subs	r4, r6, r4
    b1fc:	0affffdc 	beq	b174 <_IO_wfile_xsputn+0xb8>
    b200:	eaffffd7 	b	b164 <_IO_wfile_xsputn+0xa8>
    b204:	e1a01005 	mov	r1, r5
    b208:	e1a02004 	mov	r2, r4
    b20c:	eb002e4a 	bl	16b3c <__wmempcpy>
    b210:	e1a03104 	lsl	r3, r4, #2
    b214:	e5870010 	str	r0, [r7, #16]
    b218:	e0851003 	add	r1, r5, r3
    b21c:	eafffff5 	b	b1f8 <_IO_wfile_xsputn+0x13c>

0000b220 <_IO_wfile_sync>:
    b220:	e92d4070 	push	{r4, r5, r6, lr}
    b224:	e590305c 	ldr	r3, [r0, #92]
    b228:	e283100c 	add	r1, r3, #12	; 0xc
    b22c:	e8910006 	ldm	r1, {r1, r2}
    b230:	e1520001 	cmp	r2, r1
    b234:	e24dd008 	sub	sp, sp, #8	; 0x8
    b238:	e1a05000 	mov	r5, r0
    b23c:	9a00000b 	bls	b270 <_IO_wfile_sync+0x50>
    b240:	e590306c 	ldr	r3, [r0, #108]
    b244:	e3530000 	cmp	r3, #0	; 0x0
    b248:	da00002c 	ble	b300 <_IO_wfile_sync+0xe0>
    b24c:	e0612002 	rsb	r2, r1, r2
    b250:	e1a02142 	asr	r2, r2, #2
    b254:	ebffff46 	bl	af74 <_IO_wdo_write>
    b258:	e2500000 	subs	r0, r0, #0	; 0x0
    b25c:	13a00001 	movne	r0, #1	; 0x1
    b260:	e3500000 	cmp	r0, #0	; 0x0
    b264:	13e00000 	mvnne	r0, #0	; 0x0
    b268:	1a000009 	bne	b294 <_IO_wfile_sync+0x74>
    b26c:	e595305c 	ldr	r3, [r5, #92]
    b270:	e893000c 	ldm	r3, {r2, r3}
    b274:	e0423003 	sub	r3, r2, r3
    b278:	e1b06143 	asrs	r6, r3, #2
    b27c:	1a000007 	bne	b2a0 <_IO_wfile_sync+0x80>
    b280:	e3e03000 	mvn	r3, #0	; 0x0
    b284:	e3e04000 	mvn	r4, #0	; 0x0
    b288:	e5853050 	str	r3, [r5, #80]
    b28c:	e5854054 	str	r4, [r5, #84]
    b290:	e3a00000 	mov	r0, #0	; 0x0
    b294:	e28dd008 	add	sp, sp, #8	; 0x8
    b298:	e8bd4070 	pop	{r4, r5, r6, lr}
    b29c:	e12fff1e 	bx	lr
    b2a0:	e5954058 	ldr	r4, [r5, #88]
    b2a4:	e1a00004 	mov	r0, r4
    b2a8:	e594c010 	ldr	ip, [r4, #16]
    b2ac:	e1a0e00f 	mov	lr, pc
    b2b0:	e12fff1c 	bx	ip
    b2b4:	e3500000 	cmp	r0, #0	; 0x0
    b2b8:	c0020096 	mulgt	r2, r6, r0
    b2bc:	da000021 	ble	b348 <_IO_wfile_sync+0x128>
    b2c0:	e3a03001 	mov	r3, #1	; 0x1
    b2c4:	e58d3000 	str	r3, [sp]
    b2c8:	e1a00005 	mov	r0, r5
    b2cc:	e1a03fc2 	asr	r3, r2, #31
    b2d0:	e595c098 	ldr	ip, [r5, #152]
    b2d4:	e59cc040 	ldr	ip, [ip, #64]
    b2d8:	e1a0e00f 	mov	lr, pc
    b2dc:	e12fff1c 	bx	ip
    b2e0:	e3700001 	cmn	r0, #1	; 0x1
    b2e4:	0a00000d 	beq	b320 <_IO_wfile_sync+0x100>
    b2e8:	e595305c 	ldr	r3, [r5, #92]
    b2ec:	e5951004 	ldr	r1, [r5, #4]
    b2f0:	e5932000 	ldr	r2, [r3]
    b2f4:	e5851008 	str	r1, [r5, #8]
    b2f8:	e5832004 	str	r2, [r3, #4]
    b2fc:	eaffffdf 	b	b280 <_IO_wfile_sync+0x60>
    b300:	e5901010 	ldr	r1, [r0, #16]
    b304:	e2803014 	add	r3, r0, #20	; 0x14
    b308:	e813000c 	ldmda	r3, {r2, r3}
    b30c:	e0432002 	sub	r2, r3, r2
    b310:	eb00048e 	bl	c550 <_IO_new_do_write>
    b314:	e2500000 	subs	r0, r0, #0	; 0x0
    b318:	13a00001 	movne	r0, #1	; 0x1
    b31c:	eaffffcf 	b	b260 <_IO_wfile_sync+0x40>
    b320:	e3710001 	cmn	r1, #1	; 0x1
    b324:	1affffef 	bne	b2e8 <_IO_wfile_sync+0xc8>
    b328:	e59f306c 	ldr	r3, [pc, #108]	; b39c <_IO_wfile_sync+0x17c>
    b32c:	ebfff6df 	bl	8eb0 <__aeabi_read_tp>
    b330:	e79f3003 	ldr	r3, [pc, r3]
    b334:	e7902003 	ldr	r2, [r0, r3]
    b338:	e352001d 	cmp	r2, #29	; 0x1d
    b33c:	11a00001 	movne	r0, r1
    b340:	1affffd3 	bne	b294 <_IO_wfile_sync+0x74>
    b344:	eaffffcd 	b	b280 <_IO_wfile_sync+0x60>
    b348:	e595205c 	ldr	r2, [r5, #92]
    b34c:	e2823034 	add	r3, r2, #52	; 0x34
    b350:	e8930003 	ldm	r3, {r0, r1}
    b354:	e282202c 	add	r2, r2, #44	; 0x2c
    b358:	e8820003 	stm	r2, {r0, r1}
    b35c:	e595105c 	ldr	r1, [r5, #92]
    b360:	e595200c 	ldr	r2, [r5, #12]
    b364:	e5953008 	ldr	r3, [r5, #8]
    b368:	e281102c 	add	r1, r1, #44	; 0x2c
    b36c:	e58d6000 	str	r6, [sp]
    b370:	e1a00004 	mov	r0, r4
    b374:	e594c018 	ldr	ip, [r4, #24]
    b378:	e1a0e00f 	mov	lr, pc
    b37c:	e12fff1c 	bx	ip
    b380:	e2852008 	add	r2, r5, #8	; 0x8
    b384:	e892000c 	ldm	r2, {r2, r3}
    b388:	e0831000 	add	r1, r3, r0
    b38c:	e0623003 	rsb	r3, r2, r3
    b390:	e5851004 	str	r1, [r5, #4]
    b394:	e0832000 	add	r2, r3, r0
    b398:	eaffffc8 	b	b2c0 <_IO_wfile_sync+0xa0>
    b39c:	00077dac 	.word	0x00077dac

0000b3a0 <_IO_wfile_overflow>:
    b3a0:	e92d47f0 	push	{r4, r5, r6, r7, r8, r9, sl, lr}
    b3a4:	e5905000 	ldr	r5, [r0]
    b3a8:	e3150008 	tst	r5, #8	; 0x8
    b3ac:	e1a06000 	mov	r6, r0
    b3b0:	e1a08001 	mov	r8, r1
    b3b4:	0a00000a 	beq	b3e4 <_IO_wfile_overflow+0x44>
    b3b8:	e3853020 	orr	r3, r5, #32	; 0x20
    b3bc:	e5803000 	str	r3, [r0]
    b3c0:	e59f227c 	ldr	r2, [pc, #636]	; b644 <_IO_wfile_overflow+0x2a4>
    b3c4:	ebfff6b9 	bl	8eb0 <__aeabi_read_tp>
    b3c8:	e79f2002 	ldr	r2, [pc, r2]
    b3cc:	e3a03009 	mov	r3, #9	; 0x9
    b3d0:	e7803002 	str	r3, [r0, r2]
    b3d4:	e3e08000 	mvn	r8, #0	; 0x0
    b3d8:	e1a00008 	mov	r0, r8
    b3dc:	e8bd47f0 	pop	{r4, r5, r6, r7, r8, r9, sl, lr}
    b3e0:	e12fff1e 	bx	lr
    b3e4:	e3150b02 	tst	r5, #2048	; 0x800
    b3e8:	1a00001d 	bne	b464 <_IO_wfile_overflow+0xc4>
    b3ec:	e590705c 	ldr	r7, [r0, #92]
    b3f0:	e597300c 	ldr	r3, [r7, #12]
    b3f4:	e3530000 	cmp	r3, #0	; 0x0
    b3f8:	0a00007c 	beq	b5f0 <_IO_wfile_overflow+0x250>
    b3fc:	e597a000 	ldr	sl, [r7]
    b400:	e597301c 	ldr	r3, [r7, #28]
    b404:	e15a0003 	cmp	sl, r3
    b408:	0a000070 	beq	b5d0 <_IO_wfile_overflow+0x230>
    b40c:	e3855b02 	orr	r5, r5, #2048	; 0x800
    b410:	e3c53f7f 	bic	r3, r5, #508	; 0x1fc
    b414:	e3c33001 	bic	r3, r3, #1	; 0x1
    b418:	e1a03b03 	lsl	r3, r3, #22
    b41c:	e5964004 	ldr	r4, [r6, #4]
    b420:	e5970004 	ldr	r0, [r7, #4]
    b424:	e596c008 	ldr	ip, [r6, #8]
    b428:	e1a03b23 	lsr	r3, r3, #22
    b42c:	e597201c 	ldr	r2, [r7, #28]
    b430:	e5961020 	ldr	r1, [r6, #32]
    b434:	e3530000 	cmp	r3, #0	; 0x0
    b438:	e5872014 	str	r2, [r7, #20]
    b43c:	e5870008 	str	r0, [r7, #8]
    b440:	e5864010 	str	r4, [r6, #16]
    b444:	e5861018 	str	r1, [r6, #24]
    b448:	e586c00c 	str	ip, [r6, #12]
    b44c:	e587a010 	str	sl, [r7, #16]
    b450:	e587a00c 	str	sl, [r7, #12]
    b454:	e5870000 	str	r0, [r7]
    b458:	e5864014 	str	r4, [r6, #20]
    b45c:	e8861020 	stm	r6, {r5, ip}
    b460:	1587a014 	strne	sl, [r7, #20]
    b464:	e3780001 	cmn	r8, #1	; 0x1
    b468:	0a000030 	beq	b530 <_IO_wfile_overflow+0x190>
    b46c:	e596705c 	ldr	r7, [r6, #92]
    b470:	e5972010 	ldr	r2, [r7, #16]
    b474:	e597301c 	ldr	r3, [r7, #28]
    b478:	e1520003 	cmp	r2, r3
    b47c:	0a00001c 	beq	b4f4 <_IO_wfile_overflow+0x154>
    b480:	e5973010 	ldr	r3, [r7, #16]
    b484:	e4838004 	str	r8, [r3], #4
    b488:	e5962000 	ldr	r2, [r6]
    b48c:	e3120002 	tst	r2, #2	; 0x2
    b490:	e5873010 	str	r3, [r7, #16]
    b494:	0a000010 	beq	b4dc <_IO_wfile_overflow+0x13c>
    b498:	e596306c 	ldr	r3, [r6, #108]
    b49c:	e3530000 	cmp	r3, #0	; 0x0
    b4a0:	da00002e 	ble	b560 <_IO_wfile_overflow+0x1c0>
    b4a4:	e2871010 	add	r1, r7, #16	; 0x10
    b4a8:	e8110006 	ldmda	r1, {r1, r2}
    b4ac:	e0422001 	sub	r2, r2, r1
    b4b0:	e1a00006 	mov	r0, r6
    b4b4:	e597100c 	ldr	r1, [r7, #12]
    b4b8:	e1a02142 	asr	r2, r2, #2
    b4bc:	ebfffeac 	bl	af74 <_IO_wdo_write>
    b4c0:	e3700001 	cmn	r0, #1	; 0x1
    b4c4:	13a00000 	movne	r0, #0	; 0x0
    b4c8:	03a00001 	moveq	r0, #1	; 0x1
    b4cc:	e3500000 	cmp	r0, #0	; 0x0
    b4d0:	0affffc0 	beq	b3d8 <_IO_wfile_overflow+0x38>
    b4d4:	e3e08000 	mvn	r8, #0	; 0x0
    b4d8:	eaffffbe 	b	b3d8 <_IO_wfile_overflow+0x38>
    b4dc:	e358000a 	cmp	r8, #10	; 0xa
    b4e0:	13a03000 	movne	r3, #0	; 0x0
    b4e4:	03a03001 	moveq	r3, #1	; 0x1
    b4e8:	e01334a2 	ands	r3, r3, r2, lsr #9
    b4ec:	0affffb9 	beq	b3d8 <_IO_wfile_overflow+0x38>
    b4f0:	eaffffe8 	b	b498 <_IO_wfile_overflow+0xf8>
    b4f4:	e596306c 	ldr	r3, [r6, #108]
    b4f8:	e3530000 	cmp	r3, #0	; 0x0
    b4fc:	da000021 	ble	b588 <_IO_wfile_overflow+0x1e8>
    b500:	e597100c 	ldr	r1, [r7, #12]
    b504:	e0612002 	rsb	r2, r1, r2
    b508:	e1a02142 	asr	r2, r2, #2
    b50c:	e1a00006 	mov	r0, r6
    b510:	ebfffe97 	bl	af74 <_IO_wdo_write>
    b514:	e3700001 	cmn	r0, #1	; 0x1
    b518:	13a00000 	movne	r0, #0	; 0x0
    b51c:	03a00001 	moveq	r0, #1	; 0x1
    b520:	e3500000 	cmp	r0, #0	; 0x0
    b524:	1affffea 	bne	b4d4 <_IO_wfile_overflow+0x134>
    b528:	e596705c 	ldr	r7, [r6, #92]
    b52c:	eaffffd3 	b	b480 <_IO_wfile_overflow+0xe0>
    b530:	e596306c 	ldr	r3, [r6, #108]
    b534:	e3530000 	cmp	r3, #0	; 0x0
    b538:	da00001c 	ble	b5b0 <_IO_wfile_overflow+0x210>
    b53c:	e596305c 	ldr	r3, [r6, #92]
    b540:	e2831010 	add	r1, r3, #16	; 0x10
    b544:	e8110006 	ldmda	r1, {r1, r2}
    b548:	e0422001 	sub	r2, r2, r1
    b54c:	e593100c 	ldr	r1, [r3, #12]
    b550:	e1a00006 	mov	r0, r6
    b554:	e1a02142 	asr	r2, r2, #2
    b558:	e8bd47f0 	pop	{r4, r5, r6, r7, r8, r9, sl, lr}
    b55c:	eafffe84 	b	af74 <_IO_wdo_write>
    b560:	e1a00006 	mov	r0, r6
    b564:	e5961010 	ldr	r1, [r6, #16]
    b568:	e2863014 	add	r3, r6, #20	; 0x14
    b56c:	e813000c 	ldmda	r3, {r2, r3}
    b570:	e0432002 	sub	r2, r3, r2
    b574:	eb0003f5 	bl	c550 <_IO_new_do_write>
    b578:	e3700001 	cmn	r0, #1	; 0x1
    b57c:	13a00000 	movne	r0, #0	; 0x0
    b580:	03a00001 	moveq	r0, #1	; 0x1
    b584:	eaffffd0 	b	b4cc <_IO_wfile_overflow+0x12c>
    b588:	e1a00006 	mov	r0, r6
    b58c:	e5961010 	ldr	r1, [r6, #16]
    b590:	e2863014 	add	r3, r6, #20	; 0x14
    b594:	e813000c 	ldmda	r3, {r2, r3}
    b598:	e0432002 	sub	r2, r3, r2
    b59c:	eb0003eb 	bl	c550 <_IO_new_do_write>
    b5a0:	e3700001 	cmn	r0, #1	; 0x1
    b5a4:	13a00000 	movne	r0, #0	; 0x0
    b5a8:	03a00001 	moveq	r0, #1	; 0x1
    b5ac:	eaffffdb 	b	b520 <_IO_wfile_overflow+0x180>
    b5b0:	e1a00006 	mov	r0, r6
    b5b4:	e5961010 	ldr	r1, [r6, #16]
    b5b8:	e2863014 	add	r3, r6, #20	; 0x14
    b5bc:	e813000c 	ldmda	r3, {r2, r3}
    b5c0:	e0432002 	sub	r2, r3, r2
    b5c4:	eb0003e1 	bl	c550 <_IO_new_do_write>
    b5c8:	e1a08000 	mov	r8, r0
    b5cc:	eaffff81 	b	b3d8 <_IO_wfile_overflow+0x38>
    b5d0:	e5972018 	ldr	r2, [r7, #24]
    b5d4:	e590301c 	ldr	r3, [r0, #28]
    b5d8:	e5872000 	str	r2, [r7]
    b5dc:	e5803008 	str	r3, [r0, #8]
    b5e0:	e5803004 	str	r3, [r0, #4]
    b5e4:	e5872004 	str	r2, [r7, #4]
    b5e8:	e1a0a002 	mov	sl, r2
    b5ec:	eaffff86 	b	b40c <_IO_wfile_overflow+0x6c>
    b5f0:	eb00aada 	bl	36160 <_IO_wdoallocbuf>
    b5f4:	e596705c 	ldr	r7, [r6, #92]
    b5f8:	e5963010 	ldr	r3, [r6, #16]
    b5fc:	e5972018 	ldr	r2, [r7, #24]
    b600:	e3530000 	cmp	r3, #0	; 0x0
    b604:	e5872008 	str	r2, [r7, #8]
    b608:	e5872000 	str	r2, [r7]
    b60c:	e5872004 	str	r2, [r7, #4]
    b610:	11a0a002 	movne	sl, r2
    b614:	15965000 	ldrne	r5, [r6]
    b618:	1affff7b 	bne	b40c <_IO_wfile_overflow+0x6c>
    b61c:	e1a00006 	mov	r0, r6
    b620:	eb000ae3 	bl	e1b4 <_IO_doallocbuf>
    b624:	e596301c 	ldr	r3, [r6, #28]
    b628:	e596705c 	ldr	r7, [r6, #92]
    b62c:	e5863008 	str	r3, [r6, #8]
    b630:	e586300c 	str	r3, [r6, #12]
    b634:	e5863004 	str	r3, [r6, #4]
    b638:	e597a000 	ldr	sl, [r7]
    b63c:	e5965000 	ldr	r5, [r6]
    b640:	eaffff71 	b	b40c <_IO_wfile_overflow+0x6c>
    b644:	00077d14 	.word	0x00077d14

0000b648 <_IO_new_file_attach>:
    b648:	e92d4030 	push	{r4, r5, lr}
    b64c:	e5903038 	ldr	r3, [r0, #56]
    b650:	e3730001 	cmn	r3, #1	; 0x1
    b654:	e24dd00c 	sub	sp, sp, #12	; 0xc
    b658:	e1a05000 	mov	r5, r0
    b65c:	0a000004 	beq	b674 <_IO_new_file_attach+0x2c>
    b660:	e3a05000 	mov	r5, #0	; 0x0
    b664:	e1a00005 	mov	r0, r5
    b668:	e28dd00c 	add	sp, sp, #12	; 0xc
    b66c:	e8bd4030 	pop	{r4, r5, lr}
    b670:	e12fff1e 	bx	lr
    b674:	e5902000 	ldr	r2, [r0]
    b678:	e3c2200c 	bic	r2, r2, #12	; 0xc
    b67c:	e3822040 	orr	r2, r2, #64	; 0x40
    b680:	e3e03000 	mvn	r3, #0	; 0x0
    b684:	e3e04000 	mvn	r4, #0	; 0x0
    b688:	e5802000 	str	r2, [r0]
    b68c:	e5803050 	str	r3, [r0, #80]
    b690:	e5804054 	str	r4, [r0, #84]
    b694:	e3a02003 	mov	r2, #3	; 0x3
    b698:	e3a03001 	mov	r3, #1	; 0x1
    b69c:	e5801038 	str	r1, [r0, #56]
    b6a0:	e590c098 	ldr	ip, [r0, #152]
    b6a4:	e58d3000 	str	r3, [sp]
    b6a8:	e58d2004 	str	r2, [sp, #4]
    b6ac:	e3a03000 	mov	r3, #0	; 0x0
    b6b0:	e3a02000 	mov	r2, #0	; 0x0
    b6b4:	e59cc024 	ldr	ip, [ip, #36]
    b6b8:	e1a0e00f 	mov	lr, pc
    b6bc:	e12fff1c 	bx	ip
    b6c0:	e3700001 	cmn	r0, #1	; 0x1
    b6c4:	1affffe6 	bne	b664 <_IO_new_file_attach+0x1c>
    b6c8:	e3710001 	cmn	r1, #1	; 0x1
    b6cc:	1affffe4 	bne	b664 <_IO_new_file_attach+0x1c>
    b6d0:	e59f3014 	ldr	r3, [pc, #20]	; b6ec <_IO_new_file_attach+0xa4>
    b6d4:	ebfff5f5 	bl	8eb0 <__aeabi_read_tp>
    b6d8:	e79f3003 	ldr	r3, [pc, r3]
    b6dc:	e7902003 	ldr	r2, [r0, r3]
    b6e0:	e352001d 	cmp	r2, #29	; 0x1d
    b6e4:	1affffdd 	bne	b660 <_IO_new_file_attach+0x18>
    b6e8:	eaffffdd 	b	b664 <_IO_new_file_attach+0x1c>
    b6ec:	00077a04 	.word	0x00077a04

0000b6f0 <_IO_file_seekoff_mmap>:
    b6f0:	e92d40f0 	push	{r4, r5, r6, r7, lr}
    b6f4:	e24dd00c 	sub	sp, sp, #12	; 0xc
    b6f8:	e59d1024 	ldr	r1, [sp, #36]
    b6fc:	e3510000 	cmp	r1, #0	; 0x0
    b700:	e1a07000 	mov	r7, r0
    b704:	e1a05002 	mov	r5, r2
    b708:	e1a06003 	mov	r6, r3
    b70c:	0a000029 	beq	b7b8 <_IO_file_seekoff_mmap+0xc8>
    b710:	e59d3020 	ldr	r3, [sp, #32]
    b714:	e3530001 	cmp	r3, #1	; 0x1
    b718:	0a00003a 	beq	b808 <_IO_file_seekoff_mmap+0x118>
    b71c:	e3530002 	cmp	r3, #2	; 0x2
    b720:	1a000005 	bne	b73c <_IO_file_seekoff_mmap+0x4c>
    b724:	e2802020 	add	r2, r0, #32	; 0x20
    b728:	e812000c 	ldmda	r2, {r2, r3}
    b72c:	e0433002 	sub	r3, r3, r2
    b730:	e1a04fc3 	asr	r4, r3, #31
    b734:	e0955003 	adds	r5, r5, r3
    b738:	e0a66004 	adc	r6, r6, r4
    b73c:	e3560000 	cmp	r6, #0	; 0x0
    b740:	ba000028 	blt	b7e8 <_IO_file_seekoff_mmap+0xf8>
    b744:	e3a03000 	mov	r3, #0	; 0x0
    b748:	e58d3000 	str	r3, [sp]
    b74c:	e1a00007 	mov	r0, r7
    b750:	e597c098 	ldr	ip, [r7, #152]
    b754:	e1a02005 	mov	r2, r5
    b758:	e1a03006 	mov	r3, r6
    b75c:	e59cc040 	ldr	ip, [ip, #64]
    b760:	e1a0e00f 	mov	lr, pc
    b764:	e12fff1c 	bx	ip
    b768:	e3510000 	cmp	r1, #0	; 0x0
    b76c:	ba000032 	blt	b83c <_IO_file_seekoff_mmap+0x14c>
    b770:	e597e01c 	ldr	lr, [r7, #28]
    b774:	e597c020 	ldr	ip, [r7, #32]
    b778:	e06e300c 	rsb	r3, lr, ip
    b77c:	e1a02003 	mov	r2, r3
    b780:	e1a03fc2 	asr	r3, r2, #31
    b784:	e1560003 	cmp	r6, r3
    b788:	ca000027 	bgt	b82c <_IO_file_seekoff_mmap+0x13c>
    b78c:	0a000024 	beq	b824 <_IO_file_seekoff_mmap+0x134>
    b790:	e08e3005 	add	r3, lr, r5
    b794:	e5873008 	str	r3, [r7, #8]
    b798:	e587e00c 	str	lr, [r7, #12]
    b79c:	e5873004 	str	r3, [r7, #4]
    b7a0:	e5973000 	ldr	r3, [r7]
    b7a4:	e3c33010 	bic	r3, r3, #16	; 0x10
    b7a8:	e5873000 	str	r3, [r7]
    b7ac:	e5870050 	str	r0, [r7, #80]
    b7b0:	e5871054 	str	r1, [r7, #84]
    b7b4:	ea000006 	b	b7d4 <_IO_file_seekoff_mmap+0xe4>
    b7b8:	e990000c 	ldmib	r0, {r2, r3}
    b7bc:	e0433002 	sub	r3, r3, r2
    b7c0:	e2806050 	add	r6, r0, #80	; 0x50
    b7c4:	e8960060 	ldm	r6, {r5, r6}
    b7c8:	e1a04fc3 	asr	r4, r3, #31
    b7cc:	e0555003 	subs	r5, r5, r3
    b7d0:	e0c66004 	sbc	r6, r6, r4
    b7d4:	e1a01006 	mov	r1, r6
    b7d8:	e1a00005 	mov	r0, r5
    b7dc:	e28dd00c 	add	sp, sp, #12	; 0xc
    b7e0:	e8bd40f0 	pop	{r4, r5, r6, r7, lr}
    b7e4:	e12fff1e 	bx	lr
    b7e8:	e59f3058 	ldr	r3, [pc, #88]	; b848 <_IO_file_seekoff_mmap+0x158>
    b7ec:	ebfff5af 	bl	8eb0 <__aeabi_read_tp>
    b7f0:	e79f3003 	ldr	r3, [pc, r3]
    b7f4:	e3a02016 	mov	r2, #22	; 0x16
    b7f8:	e7802003 	str	r2, [r0, r3]
    b7fc:	e3e05000 	mvn	r5, #0	; 0x0
    b800:	e3e06000 	mvn	r6, #0	; 0x0
    b804:	eafffff2 	b	b7d4 <_IO_file_seekoff_mmap+0xe4>
    b808:	e5903004 	ldr	r3, [r0, #4]
    b80c:	e590200c 	ldr	r2, [r0, #12]
    b810:	e0623003 	rsb	r3, r2, r3
    b814:	e1a04fc3 	asr	r4, r3, #31
    b818:	e0955003 	adds	r5, r5, r3
    b81c:	e0a66004 	adc	r6, r6, r4
    b820:	eaffffc5 	b	b73c <_IO_file_seekoff_mmap+0x4c>
    b824:	e1550002 	cmp	r5, r2
    b828:	9affffd8 	bls	b790 <_IO_file_seekoff_mmap+0xa0>
    b82c:	e587e00c 	str	lr, [r7, #12]
    b830:	e587c008 	str	ip, [r7, #8]
    b834:	e587c004 	str	ip, [r7, #4]
    b838:	eaffffd8 	b	b7a0 <_IO_file_seekoff_mmap+0xb0>
    b83c:	e3e05000 	mvn	r5, #0	; 0x0
    b840:	e3e06000 	mvn	r6, #0	; 0x0
    b844:	eaffffe2 	b	b7d4 <_IO_file_seekoff_mmap+0xe4>
    b848:	000778ec 	.word	0x000778ec

0000b84c <_IO_file_seekoff_maybe_mmap>:
    b84c:	e92d4010 	push	{r4, lr}
    b850:	e24dd008 	sub	sp, sp, #8	; 0x8
    b854:	e59d1010 	ldr	r1, [sp, #16]
    b858:	e58d1000 	str	r1, [sp]
    b85c:	e590c098 	ldr	ip, [r0, #152]
    b860:	e1a04000 	mov	r4, r0
    b864:	e59cc040 	ldr	ip, [ip, #64]
    b868:	e1a0e00f 	mov	lr, pc
    b86c:	e12fff1c 	bx	ip
    b870:	e3510000 	cmp	r1, #0	; 0x0
    b874:	e1a02000 	mov	r2, r0
    b878:	e1a03001 	mov	r3, r1
    b87c:	b3e02000 	mvnlt	r2, #0	; 0x0
    b880:	b3e03000 	mvnlt	r3, #0	; 0x0
    b884:	a5842050 	strge	r2, [r4, #80]
    b888:	a5843054 	strge	r3, [r4, #84]
    b88c:	e1a01003 	mov	r1, r3
    b890:	e1a00002 	mov	r0, r2
    b894:	e28dd008 	add	sp, sp, #8	; 0x8
    b898:	e8bd4010 	pop	{r4, lr}
    b89c:	e12fff1e 	bx	lr

0000b8a0 <_IO_file_close>:
    b8a0:	e92d4080 	push	{r7, lr}
    b8a4:	e5900038 	ldr	r0, [r0, #56]
    b8a8:	e3a07006 	mov	r7, #6	; 0x6
    b8ac:	ef000000 	svc	0x00000000
    b8b0:	e3700a01 	cmn	r0, #4096	; 0x1000
    b8b4:	e1a02000 	mov	r2, r0
    b8b8:	91a00000 	movls	r0, r0
    b8bc:	8a000001 	bhi	b8c8 <_IO_file_close+0x28>
    b8c0:	e8bd4080 	pop	{r7, lr}
    b8c4:	e12fff1e 	bx	lr
    b8c8:	e59f3014 	ldr	r3, [pc, #20]	; b8e4 <_IO_file_close+0x44>
    b8cc:	ebfff577 	bl	8eb0 <__aeabi_read_tp>
    b8d0:	e79f3003 	ldr	r3, [pc, r3]
    b8d4:	e2622000 	rsb	r2, r2, #0	; 0x0
    b8d8:	e7802003 	str	r2, [r0, r3]
    b8dc:	e3e00000 	mvn	r0, #0	; 0x0
    b8e0:	eafffff6 	b	b8c0 <_IO_file_close+0x20>
    b8e4:	0007780c 	.word	0x0007780c

0000b8e8 <_IO_file_sync_mmap>:
    b8e8:	e92d4010 	push	{r4, lr}
    b8ec:	e990000a 	ldmib	r0, {r1, r3}
    b8f0:	e1510003 	cmp	r1, r3
    b8f4:	e24dd008 	sub	sp, sp, #8	; 0x8
    b8f8:	e1a04000 	mov	r4, r0
    b8fc:	0a000014 	beq	b954 <_IO_file_sync_mmap+0x6c>
    b900:	e590201c 	ldr	r2, [r0, #28]
    b904:	e0622001 	rsb	r2, r2, r1
    b908:	e1a03fc2 	asr	r3, r2, #31
    b90c:	e5900038 	ldr	r0, [r0, #56]
    b910:	e3a01000 	mov	r1, #0	; 0x0
    b914:	e58d1000 	str	r1, [sp]
    b918:	eb003138 	bl	17e00 <__libc_lseek64>
    b91c:	e594201c 	ldr	r2, [r4, #28]
    b920:	e5943004 	ldr	r3, [r4, #4]
    b924:	e0623003 	rsb	r3, r2, r3
    b928:	e1a02003 	mov	r2, r3
    b92c:	e1a03fc2 	asr	r3, r2, #31
    b930:	e1500002 	cmp	r0, r2
    b934:	0a000011 	beq	b980 <_IO_file_sync_mmap+0x98>
    b938:	e5943000 	ldr	r3, [r4]
    b93c:	e3833020 	orr	r3, r3, #32	; 0x20
    b940:	e5843000 	str	r3, [r4]
    b944:	e3e00000 	mvn	r0, #0	; 0x0
    b948:	e28dd008 	add	sp, sp, #8	; 0x8
    b94c:	e8bd4010 	pop	{r4, lr}
    b950:	e12fff1e 	bx	lr
    b954:	e590301c 	ldr	r3, [r0, #28]
    b958:	e0633001 	rsb	r3, r3, r1
    b95c:	e1a00003 	mov	r0, r3
    b960:	e1a01fc0 	asr	r1, r0, #31
    b964:	e594300c 	ldr	r3, [r4, #12]
    b968:	e5840050 	str	r0, [r4, #80]
    b96c:	e5841054 	str	r1, [r4, #84]
    b970:	e5843008 	str	r3, [r4, #8]
    b974:	e5843004 	str	r3, [r4, #4]
    b978:	e3a00000 	mov	r0, #0	; 0x0
    b97c:	eafffff1 	b	b948 <_IO_file_sync_mmap+0x60>
    b980:	e1510003 	cmp	r1, r3
    b984:	1affffeb 	bne	b938 <_IO_file_sync_mmap+0x50>
    b988:	eafffff5 	b	b964 <_IO_file_sync_mmap+0x7c>

0000b98c <_IO_file_seek>:
    b98c:	e52de004 	push	{lr}		; (str lr, [sp, #-4]!)
    b990:	e24dd00c 	sub	sp, sp, #12	; 0xc
    b994:	e59d1010 	ldr	r1, [sp, #16]
    b998:	e5900038 	ldr	r0, [r0, #56]
    b99c:	e58d1000 	str	r1, [sp]
    b9a0:	eb003116 	bl	17e00 <__libc_lseek64>
    b9a4:	e28dd00c 	add	sp, sp, #12	; 0xc
    b9a8:	e49de004 	pop	{lr}		; (ldr lr, [sp], #4)
    b9ac:	e12fff1e 	bx	lr

0000b9b0 <_IO_file_close_mmap>:
    b9b0:	e92d40b0 	push	{r4, r5, r7, lr}
    b9b4:	e1a04000 	mov	r4, r0
    b9b8:	e2843020 	add	r3, r4, #32	; 0x20
    b9bc:	e813000a 	ldmda	r3, {r1, r3}
    b9c0:	e0431001 	sub	r1, r3, r1
    b9c4:	e590001c 	ldr	r0, [r0, #28]
    b9c8:	eb0030e0 	bl	17d50 <__munmap>
    b9cc:	e3a03000 	mov	r3, #0	; 0x0
    b9d0:	e584301c 	str	r3, [r4, #28]
    b9d4:	e5843020 	str	r3, [r4, #32]
    b9d8:	e5940038 	ldr	r0, [r4, #56]
    b9dc:	e3a07006 	mov	r7, #6	; 0x6
    b9e0:	ef000000 	svc	0x00000000
    b9e4:	e3700a01 	cmn	r0, #4096	; 0x1000
    b9e8:	e1a02000 	mov	r2, r0
    b9ec:	91a00000 	movls	r0, r0
    b9f0:	8a000001 	bhi	b9fc <_IO_file_close_mmap+0x4c>
    b9f4:	e8bd40b0 	pop	{r4, r5, r7, lr}
    b9f8:	e12fff1e 	bx	lr
    b9fc:	e59f3014 	ldr	r3, [pc, #20]	; ba18 <_IO_file_close_mmap+0x68>
    ba00:	ebfff52a 	bl	8eb0 <__aeabi_read_tp>
    ba04:	e79f3003 	ldr	r3, [pc, r3]
    ba08:	e2622000 	rsb	r2, r2, #0	; 0x0
    ba0c:	e7802003 	str	r2, [r0, r3]
    ba10:	e3e00000 	mvn	r0, #0	; 0x0
    ba14:	eafffff6 	b	b9f4 <_IO_file_close_mmap+0x44>
    ba18:	000776d8 	.word	0x000776d8

0000ba1c <decide_maybe_mmap>:
    ba1c:	e92d41f0 	push	{r4, r5, r6, r7, r8, lr}
    ba20:	e24dd078 	sub	sp, sp, #120	; 0x78
    ba24:	e5903098 	ldr	r3, [r0, #152]
    ba28:	e28d1010 	add	r1, sp, #16	; 0x10
    ba2c:	e1a05000 	mov	r5, r0
    ba30:	e593c048 	ldr	ip, [r3, #72]
    ba34:	e1a0e00f 	mov	lr, pc
    ba38:	e12fff1c 	bx	ip
    ba3c:	e3500000 	cmp	r0, #0	; 0x0
    ba40:	1a000003 	bne	ba54 <decide_maybe_mmap+0x38>
    ba44:	e59d3020 	ldr	r3, [sp, #32]
    ba48:	e2033a0f 	and	r3, r3, #61440	; 0xf000
    ba4c:	e3530902 	cmp	r3, #32768	; 0x8000
    ba50:	0a00000b 	beq	ba84 <decide_maybe_mmap+0x68>
    ba54:	e595306c 	ldr	r3, [r5, #108]
    ba58:	e3530000 	cmp	r3, #0	; 0x0
    ba5c:	d59f3174 	ldrle	r3, [pc, #372]	; bbd8 <decide_maybe_mmap+0x1bc>
    ba60:	c59f2174 	ldrgt	r2, [pc, #372]	; bbdc <decide_maybe_mmap+0x1c0>
    ba64:	d5853098 	strle	r3, [r5, #152]
    ba68:	d59f216c 	ldrle	r2, [pc, #364]	; bbdc <decide_maybe_mmap+0x1c0>
    ba6c:	c5852098 	strgt	r2, [r5, #152]
    ba70:	e595305c 	ldr	r3, [r5, #92]
    ba74:	e58320b8 	str	r2, [r3, #184]
    ba78:	e28dd078 	add	sp, sp, #120	; 0x78
    ba7c:	e8bd41f0 	pop	{r4, r5, r6, r7, r8, lr}
    ba80:	e12fff1e 	bx	lr
    ba84:	e28d1040 	add	r1, sp, #64	; 0x40
    ba88:	e891000a 	ldm	r1, {r1, r3}
    ba8c:	e1912003 	orrs	r2, r1, r3
    ba90:	0affffef 	beq	ba54 <decide_maybe_mmap+0x38>
    ba94:	e3530000 	cmp	r3, #0	; 0x0
    ba98:	caffffed 	bgt	ba54 <decide_maybe_mmap+0x38>
    ba9c:	1a000001 	bne	baa8 <decide_maybe_mmap+0x8c>
    baa0:	e3510601 	cmp	r1, #1048576	; 0x100000
    baa4:	2affffea 	bcs	ba54 <decide_maybe_mmap+0x38>
    baa8:	e5950050 	ldr	r0, [r5, #80]
    baac:	e3700001 	cmn	r0, #1	; 0x1
    bab0:	e5952054 	ldr	r2, [r5, #84]
    bab4:	0a000021 	beq	bb40 <decide_maybe_mmap+0x124>
    bab8:	e1520003 	cmp	r2, r3
    babc:	caffffe4 	bgt	ba54 <decide_maybe_mmap+0x38>
    bac0:	0a00003b 	beq	bbb4 <decide_maybe_mmap+0x198>
    bac4:	e595c038 	ldr	ip, [r5, #56]
    bac8:	e3a02001 	mov	r2, #1	; 0x1
    bacc:	e3a07000 	mov	r7, #0	; 0x0
    bad0:	e3a08000 	mov	r8, #0	; 0x0
    bad4:	e3a00000 	mov	r0, #0	; 0x0
    bad8:	e1a03002 	mov	r3, r2
    badc:	e58dc000 	str	ip, [sp]
    bae0:	e58d7008 	str	r7, [sp, #8]
    bae4:	e58d800c 	str	r8, [sp, #12]
    bae8:	eb003080 	bl	17cf0 <__mmap64>
    baec:	e3700001 	cmn	r0, #1	; 0x1
    baf0:	e1a04000 	mov	r4, r0
    baf4:	0affffd6 	beq	ba54 <decide_maybe_mmap+0x38>
    baf8:	e28d3040 	add	r3, sp, #64	; 0x40
    bafc:	e893000c 	ldm	r3, {r2, r3}
    bb00:	e5950038 	ldr	r0, [r5, #56]
    bb04:	e3a06000 	mov	r6, #0	; 0x0
    bb08:	e58d6000 	str	r6, [sp]
    bb0c:	eb0030bb 	bl	17e00 <__libc_lseek64>
    bb10:	e1a02001 	mov	r2, r1
    bb14:	e59d1040 	ldr	r1, [sp, #64]
    bb18:	e1500001 	cmp	r0, r1
    bb1c:	e59d3044 	ldr	r3, [sp, #68]
    bb20:	0a000009 	beq	bb4c <decide_maybe_mmap+0x130>
    bb24:	e1a00004 	mov	r0, r4
    bb28:	eb003088 	bl	17d50 <__munmap>
    bb2c:	e3e04000 	mvn	r4, #0	; 0x0
    bb30:	e3e03000 	mvn	r3, #0	; 0x0
    bb34:	e5853050 	str	r3, [r5, #80]
    bb38:	e5854054 	str	r4, [r5, #84]
    bb3c:	eaffffc4 	b	ba54 <decide_maybe_mmap+0x38>
    bb40:	e3720001 	cmn	r2, #1	; 0x1
    bb44:	1affffdb 	bne	bab8 <decide_maybe_mmap+0x9c>
    bb48:	eaffffdd 	b	bac4 <decide_maybe_mmap+0xa8>
    bb4c:	e1520003 	cmp	r2, r3
    bb50:	1afffff3 	bne	bb24 <decide_maybe_mmap+0x108>
    bb54:	e0842000 	add	r2, r4, r0
    bb58:	e1a03006 	mov	r3, r6
    bb5c:	e1a00005 	mov	r0, r5
    bb60:	e1a01004 	mov	r1, r4
    bb64:	eb00094a 	bl	e094 <_IO_setb>
    bb68:	e5952050 	ldr	r2, [r5, #80]
    bb6c:	e3720001 	cmn	r2, #1	; 0x1
    bb70:	0a000012 	beq	bbc0 <decide_maybe_mmap+0x1a4>
    bb74:	e59d1040 	ldr	r1, [sp, #64]
    bb78:	e595306c 	ldr	r3, [r5, #108]
    bb7c:	e0842002 	add	r2, r4, r2
    bb80:	e3530000 	cmp	r3, #0	; 0x0
    bb84:	e0843001 	add	r3, r4, r1
    bb88:	e59d0044 	ldr	r0, [sp, #68]
    bb8c:	e985000c 	stmib	r5, {r2, r3}
    bb90:	c59f2048 	ldrgt	r2, [pc, #72]	; bbe0 <decide_maybe_mmap+0x1c4>
    bb94:	d59f3048 	ldrle	r3, [pc, #72]	; bbe4 <decide_maybe_mmap+0x1c8>
    bb98:	e5851050 	str	r1, [r5, #80]
    bb9c:	e5850054 	str	r0, [r5, #84]
    bba0:	e585400c 	str	r4, [r5, #12]
    bba4:	d5853098 	strle	r3, [r5, #152]
    bba8:	d59f2030 	ldrle	r2, [pc, #48]	; bbe0 <decide_maybe_mmap+0x1c4>
    bbac:	c5852098 	strgt	r2, [r5, #152]
    bbb0:	eaffffae 	b	ba70 <decide_maybe_mmap+0x54>
    bbb4:	e1500001 	cmp	r0, r1
    bbb8:	8affffa5 	bhi	ba54 <decide_maybe_mmap+0x38>
    bbbc:	eaffffc0 	b	bac4 <decide_maybe_mmap+0xa8>
    bbc0:	e5953054 	ldr	r3, [r5, #84]
    bbc4:	e3730001 	cmn	r3, #1	; 0x1
    bbc8:	05857050 	streq	r7, [r5, #80]
    bbcc:	05858054 	streq	r8, [r5, #84]
    bbd0:	02822001 	addeq	r2, r2, #1	; 0x1
    bbd4:	eaffffe6 	b	bb74 <decide_maybe_mmap+0x158>
    bbd8:	00066334 	.word	0x00066334
    bbdc:	000661a8 	.word	0x000661a8
    bbe0:	000661fc 	.word	0x000661fc
    bbe4:	000662e0 	.word	0x000662e0

0000bbe8 <_IO_file_xsgetn_maybe_mmap>:
    bbe8:	e92d4070 	push	{r4, r5, r6, lr}
    bbec:	e1a04000 	mov	r4, r0
    bbf0:	e1a05001 	mov	r5, r1
    bbf4:	e1a06002 	mov	r6, r2
    bbf8:	ebffff87 	bl	ba1c <decide_maybe_mmap>
    bbfc:	e1a00004 	mov	r0, r4
    bc00:	e1a01005 	mov	r1, r5
    bc04:	e1a02006 	mov	r2, r6
    bc08:	e5943098 	ldr	r3, [r4, #152]
    bc0c:	e593c020 	ldr	ip, [r3, #32]
    bc10:	e1a0e00f 	mov	lr, pc
    bc14:	e12fff1c 	bx	ip
    bc18:	e8bd4070 	pop	{r4, r5, r6, lr}
    bc1c:	e12fff1e 	bx	lr

0000bc20 <_IO_file_underflow_maybe_mmap>:
    bc20:	e92d4010 	push	{r4, lr}
    bc24:	e1a04000 	mov	r4, r0
    bc28:	ebffff7b 	bl	ba1c <decide_maybe_mmap>
    bc2c:	e1a00004 	mov	r0, r4
    bc30:	e5943098 	ldr	r3, [r4, #152]
    bc34:	e593c010 	ldr	ip, [r3, #16]
    bc38:	e1a0e00f 	mov	lr, pc
    bc3c:	e12fff1c 	bx	ip
    bc40:	e8bd4010 	pop	{r4, lr}
    bc44:	e12fff1e 	bx	lr

0000bc48 <mmap_remap_check>:
    bc48:	e92d4ff0 	push	{r4, r5, r6, r7, r8, r9, sl, fp, lr}
    bc4c:	e24dd07c 	sub	sp, sp, #124	; 0x7c
    bc50:	e5903098 	ldr	r3, [r0, #152]
    bc54:	e28d1010 	add	r1, sp, #16	; 0x10
    bc58:	e1a07000 	mov	r7, r0
    bc5c:	e593c048 	ldr	ip, [r3, #72]
    bc60:	e1a0e00f 	mov	lr, pc
    bc64:	e12fff1c 	bx	ip
    bc68:	e3500000 	cmp	r0, #0	; 0x0
    bc6c:	1a000003 	bne	bc80 <mmap_remap_check+0x38>
    bc70:	e59d3020 	ldr	r3, [sp, #32]
    bc74:	e2033a0f 	and	r3, r3, #61440	; 0xf000
    bc78:	e3530902 	cmp	r3, #32768	; 0x8000
    bc7c:	0a000017 	beq	bce0 <mmap_remap_check+0x98>
    bc80:	e597001c 	ldr	r0, [r7, #28]
    bc84:	e2873020 	add	r3, r7, #32	; 0x20
    bc88:	e813000a 	ldmda	r3, {r1, r3}
    bc8c:	e0431001 	sub	r1, r3, r1
    bc90:	eb00302e 	bl	17d50 <__munmap>
    bc94:	e597206c 	ldr	r2, [r7, #108]
    bc98:	e3a03000 	mov	r3, #0	; 0x0
    bc9c:	e3520000 	cmp	r2, #0	; 0x0
    bca0:	e5873008 	str	r3, [r7, #8]
    bca4:	e5873020 	str	r3, [r7, #32]
    bca8:	e587301c 	str	r3, [r7, #28]
    bcac:	e587300c 	str	r3, [r7, #12]
    bcb0:	e5873004 	str	r3, [r7, #4]
    bcb4:	d59f3250 	ldrle	r3, [pc, #592]	; bf0c <mmap_remap_check+0x2c4>
    bcb8:	c59f2250 	ldrgt	r2, [pc, #592]	; bf10 <mmap_remap_check+0x2c8>
    bcbc:	d5873098 	strle	r3, [r7, #152]
    bcc0:	d59f2248 	ldrle	r2, [pc, #584]	; bf10 <mmap_remap_check+0x2c8>
    bcc4:	e597305c 	ldr	r3, [r7, #92]
    bcc8:	c5872098 	strgt	r2, [r7, #152]
    bccc:	e58320b8 	str	r2, [r3, #184]
    bcd0:	e3a00001 	mov	r0, #1	; 0x1
    bcd4:	e28dd07c 	add	sp, sp, #124	; 0x7c
    bcd8:	e8bd4ff0 	pop	{r4, r5, r6, r7, r8, r9, sl, fp, lr}
    bcdc:	e12fff1e 	bx	lr
    bce0:	e28d9040 	add	r9, sp, #64	; 0x40
    bce4:	e8990300 	ldm	r9, {r8, r9}
    bce8:	e1982009 	orrs	r2, r8, r9
    bcec:	0affffe3 	beq	bc80 <mmap_remap_check+0x38>
    bcf0:	e3590000 	cmp	r9, #0	; 0x0
    bcf4:	caffffe1 	bgt	bc80 <mmap_remap_check+0x38>
    bcf8:	1a000001 	bne	bd04 <mmap_remap_check+0xbc>
    bcfc:	e3580601 	cmp	r8, #1048576	; 0x100000
    bd00:	2affffde 	bcs	bc80 <mmap_remap_check+0x38>
    bd04:	eb002d98 	bl	1736c <__getpagesize>
    bd08:	e3e01000 	mvn	r1, #0	; 0x0
    bd0c:	e2603000 	rsb	r3, r0, #0	; 0x0
    bd10:	e58d300c 	str	r3, [sp, #12]
    bd14:	e0911008 	adds	r1, r1, r8
    bd18:	e1a03000 	mov	r3, r0
    bd1c:	e3a04000 	mov	r4, #0	; 0x0
    bd20:	e3e02000 	mvn	r2, #0	; 0x0
    bd24:	e0a22009 	adc	r2, r2, r9
    bd28:	e0911003 	adds	r1, r1, r3
    bd2c:	e59d300c 	ldr	r3, [sp, #12]
    bd30:	e0a22004 	adc	r2, r2, r4
    bd34:	e1a05003 	mov	r5, r3
    bd38:	e3a06000 	mov	r6, #0	; 0x0
    bd3c:	e1a0e000 	mov	lr, r0
    bd40:	e006b002 	and	fp, r6, r2
    bd44:	e2873020 	add	r3, r7, #32	; 0x20
    bd48:	e8130009 	ldmda	r3, {r0, r3}
    bd4c:	e0430000 	sub	r0, r3, r0
    bd50:	e3a02000 	mov	r2, #0	; 0x0
    bd54:	e24e3001 	sub	r3, lr, #1	; 0x1
    bd58:	e152000b 	cmp	r2, fp
    bd5c:	e59d200c 	ldr	r2, [sp, #12]
    bd60:	e0833000 	add	r3, r3, r0
    bd64:	e005a001 	and	sl, r5, r1
    bd68:	e597c01c 	ldr	ip, [r7, #28]
    bd6c:	e0031002 	and	r1, r3, r2
    bd70:	da000034 	ble	be48 <mmap_remap_check+0x200>
    bd74:	e59d300c 	ldr	r3, [sp, #12]
    bd78:	e08e0008 	add	r0, lr, r8
    bd7c:	e2400001 	sub	r0, r0, #1	; 0x1
    bd80:	e0000003 	and	r0, r0, r3
    bd84:	e0601001 	rsb	r1, r0, r1
    bd88:	e08c0000 	add	r0, ip, r0
    bd8c:	eb002fef 	bl	17d50 <__munmap>
    bd90:	e597c01c 	ldr	ip, [r7, #28]
    bd94:	e59d3040 	ldr	r3, [sp, #64]
    bd98:	e08c3003 	add	r3, ip, r3
    bd9c:	e5873020 	str	r3, [r7, #32]
    bda0:	e997000c 	ldmib	r7, {r2, r3}
    bda4:	e0433002 	sub	r3, r3, r2
    bda8:	e2872050 	add	r2, r7, #80	; 0x50
    bdac:	e8920006 	ldm	r2, {r1, r2}
    bdb0:	e1a04fc3 	asr	r4, r3, #31
    bdb4:	e0511003 	subs	r1, r1, r3
    bdb8:	e0c22004 	sbc	r2, r2, r4
    bdbc:	e5871050 	str	r1, [r7, #80]
    bdc0:	e5872054 	str	r2, [r7, #84]
    bdc4:	e5970020 	ldr	r0, [r7, #32]
    bdc8:	e5975054 	ldr	r5, [r7, #84]
    bdcc:	e06c3000 	rsb	r3, ip, r0
    bdd0:	e1a08003 	mov	r8, r3
    bdd4:	e1a09fc8 	asr	r9, r8, #31
    bdd8:	e1590005 	cmp	r9, r5
    bddc:	e587c00c 	str	ip, [r7, #12]
    bde0:	e1a0e000 	mov	lr, r0
    bde4:	ca00002b 	bgt	be98 <mmap_remap_check+0x250>
    bde8:	0a000028 	beq	be90 <mmap_remap_check+0x248>
    bdec:	e06c3000 	rsb	r3, ip, r0
    bdf0:	e1a02003 	mov	r2, r3
    bdf4:	e1a03fc2 	asr	r3, r2, #31
    bdf8:	e1550003 	cmp	r5, r3
    bdfc:	e587e004 	str	lr, [r7, #4]
    be00:	e5870008 	str	r0, [r7, #8]
    be04:	aa000025 	bge	bea0 <mmap_remap_check+0x258>
    be08:	e5970038 	ldr	r0, [r7, #56]
    be0c:	e3a05000 	mov	r5, #0	; 0x0
    be10:	e58d5000 	str	r5, [sp]
    be14:	eb002ff9 	bl	17e00 <__libc_lseek64>
    be18:	e2872020 	add	r2, r7, #32	; 0x20
    be1c:	e812000c 	ldmda	r2, {r2, r3}
    be20:	e0433002 	sub	r3, r3, r2
    be24:	e1a02003 	mov	r2, r3
    be28:	e1a03fc2 	asr	r3, r2, #31
    be2c:	e1500002 	cmp	r0, r2
    be30:	0a000029 	beq	bedc <mmap_remap_check+0x294>
    be34:	e5973000 	ldr	r3, [r7]
    be38:	e3833020 	orr	r3, r3, #32	; 0x20
    be3c:	e5873000 	str	r3, [r7]
    be40:	e3a00000 	mov	r0, #0	; 0x0
    be44:	eaffffa2 	b	bcd4 <mmap_remap_check+0x8c>
    be48:	0a00001d 	beq	bec4 <mmap_remap_check+0x27c>
    be4c:	e35b0000 	cmp	fp, #0	; 0x0
    be50:	da000017 	ble	beb4 <mmap_remap_check+0x26c>
    be54:	e59d300c 	ldr	r3, [sp, #12]
    be58:	e08e2008 	add	r2, lr, r8
    be5c:	e2422001 	sub	r2, r2, #1	; 0x1
    be60:	e0022003 	and	r2, r2, r3
    be64:	e1a0000c 	mov	r0, ip
    be68:	e3a03001 	mov	r3, #1	; 0x1
    be6c:	eb002fff 	bl	17e70 <__mremap>
    be70:	e3700001 	cmn	r0, #1	; 0x1
    be74:	0a00001e 	beq	bef4 <mmap_remap_check+0x2ac>
    be78:	e59d3040 	ldr	r3, [sp, #64]
    be7c:	e0803003 	add	r3, r0, r3
    be80:	e5873020 	str	r3, [r7, #32]
    be84:	e587001c 	str	r0, [r7, #28]
    be88:	e1a0c000 	mov	ip, r0
    be8c:	eaffffc3 	b	bda0 <mmap_remap_check+0x158>
    be90:	e1580001 	cmp	r8, r1
    be94:	9affffd4 	bls	bdec <mmap_remap_check+0x1a4>
    be98:	e08ce001 	add	lr, ip, r1
    be9c:	eaffffd2 	b	bdec <mmap_remap_check+0x1a4>
    bea0:	1affffe6 	bne	be40 <mmap_remap_check+0x1f8>
    bea4:	e1510002 	cmp	r1, r2
    bea8:	3affffd6 	bcc	be08 <mmap_remap_check+0x1c0>
    beac:	e3a00000 	mov	r0, #0	; 0x0
    beb0:	eaffff87 	b	bcd4 <mmap_remap_check+0x8c>
    beb4:	0a000005 	beq	bed0 <mmap_remap_check+0x288>
    beb8:	e08c3008 	add	r3, ip, r8
    bebc:	e5873020 	str	r3, [r7, #32]
    bec0:	eaffffb6 	b	bda0 <mmap_remap_check+0x158>
    bec4:	e151000a 	cmp	r1, sl
    bec8:	9affffdf 	bls	be4c <mmap_remap_check+0x204>
    becc:	eaffffa8 	b	bd74 <mmap_remap_check+0x12c>
    bed0:	e15a0001 	cmp	sl, r1
    bed4:	9afffff7 	bls	beb8 <mmap_remap_check+0x270>
    bed8:	eaffffdd 	b	be54 <mmap_remap_check+0x20c>
    bedc:	e1510003 	cmp	r1, r3
    bee0:	05870050 	streq	r0, [r7, #80]
    bee4:	05871054 	streq	r1, [r7, #84]
    bee8:	01a00005 	moveq	r0, r5
    beec:	1affffd0 	bne	be34 <mmap_remap_check+0x1ec>
    bef0:	eaffff77 	b	bcd4 <mmap_remap_check+0x8c>
    bef4:	e597001c 	ldr	r0, [r7, #28]
    bef8:	e2872020 	add	r2, r7, #32	; 0x20
    befc:	e8120006 	ldmda	r2, {r1, r2}
    bf00:	e0421001 	sub	r1, r2, r1
    bf04:	eb002f91 	bl	17d50 <__munmap>
    bf08:	eaffff61 	b	bc94 <mmap_remap_check+0x4c>
    bf0c:	00066334 	.word	0x00066334
    bf10:	000661a8 	.word	0x000661a8

0000bf14 <_IO_file_xsgetn_mmap>:
    bf14:	e92d47f0 	push	{r4, r5, r6, r7, r8, r9, sl, lr}
    bf18:	e9900018 	ldmib	r0, {r3, r4}
    bf1c:	e0444003 	sub	r4, r4, r3
    bf20:	e1540002 	cmp	r4, r2
    bf24:	e1a05000 	mov	r5, r0
    bf28:	e1a06002 	mov	r6, r2
    bf2c:	e1a0a001 	mov	sl, r1
    bf30:	e1a08001 	mov	r8, r1
    bf34:	e5907004 	ldr	r7, [r0, #4]
    bf38:	3a00000e 	bcc	bf78 <_IO_file_xsgetn_mmap+0x64>
    bf3c:	e3540000 	cmp	r4, #0	; 0x0
    bf40:	1a000002 	bne	bf50 <_IO_file_xsgetn_mmap+0x3c>
    bf44:	e06a0008 	rsb	r0, sl, r8
    bf48:	e8bd47f0 	pop	{r4, r5, r6, r7, r8, r9, sl, lr}
    bf4c:	e12fff1e 	bx	lr
    bf50:	e1540006 	cmp	r4, r6
    bf54:	21a04006 	movcs	r4, r6
    bf58:	e1a00008 	mov	r0, r8
    bf5c:	e1a02004 	mov	r2, r4
    bf60:	e1a01007 	mov	r1, r7
    bf64:	eb0028c5 	bl	16280 <__mempcpy>
    bf68:	e0874004 	add	r4, r7, r4
    bf6c:	e1a08000 	mov	r8, r0
    bf70:	e5854004 	str	r4, [r5, #4]
    bf74:	eafffff2 	b	bf44 <_IO_file_xsgetn_mmap+0x30>
    bf78:	e5903000 	ldr	r3, [r0]
    bf7c:	e3130c01 	tst	r3, #256	; 0x100
    bf80:	1a000015 	bne	bfdc <_IO_file_xsgetn_mmap+0xc8>
    bf84:	e1a00005 	mov	r0, r5
    bf88:	ebffff2e 	bl	bc48 <mmap_remap_check>
    bf8c:	e3500000 	cmp	r0, #0	; 0x0
    bf90:	1a000007 	bne	bfb4 <_IO_file_xsgetn_mmap+0xa0>
    bf94:	e9950018 	ldmib	r5, {r3, r4}
    bf98:	e0444003 	sub	r4, r4, r3
    bf9c:	e1540006 	cmp	r4, r6
    bfa0:	35953000 	ldrcc	r3, [r5]
    bfa4:	33833010 	orrcc	r3, r3, #16	; 0x10
    bfa8:	e5957004 	ldr	r7, [r5, #4]
    bfac:	35853000 	strcc	r3, [r5]
    bfb0:	eaffffe1 	b	bf3c <_IO_file_xsgetn_mmap+0x28>
    bfb4:	e1a00005 	mov	r0, r5
    bfb8:	e1a02006 	mov	r2, r6
    bfbc:	e595c098 	ldr	ip, [r5, #152]
    bfc0:	e1a0100a 	mov	r1, sl
    bfc4:	e59cc020 	ldr	ip, [ip, #32]
    bfc8:	e1a0e00f 	mov	lr, pc
    bfcc:	e12fff1c 	bx	ip
    bfd0:	e06a3008 	rsb	r3, sl, r8
    bfd4:	e0800003 	add	r0, r0, r3
    bfd8:	eaffffda 	b	bf48 <_IO_file_xsgetn_mmap+0x34>
    bfdc:	e1a01007 	mov	r1, r7
    bfe0:	e1a02004 	mov	r2, r4
    bfe4:	e1a0000a 	mov	r0, sl
    bfe8:	eb0028a4 	bl	16280 <__mempcpy>
    bfec:	e1a08000 	mov	r8, r0
    bff0:	e1a00005 	mov	r0, r5
    bff4:	eb0006ab 	bl	daa8 <_IO_switch_to_main_get_area>
    bff8:	e0646006 	rsb	r6, r4, r6
    bffc:	e9950018 	ldmib	r5, {r3, r4}
    c000:	e0444003 	sub	r4, r4, r3
    c004:	e1560004 	cmp	r6, r4
    c008:	e5957004 	ldr	r7, [r5, #4]
    c00c:	9affffca 	bls	bf3c <_IO_file_xsgetn_mmap+0x28>
    c010:	eaffffdb 	b	bf84 <_IO_file_xsgetn_mmap+0x70>

0000c014 <_IO_file_underflow_mmap>:
    c014:	e92d4010 	push	{r4, lr}
    c018:	e990000c 	ldmib	r0, {r2, r3}
    c01c:	e1520003 	cmp	r2, r3
    c020:	e1a04000 	mov	r4, r0
    c024:	35d20000 	ldrbcc	r0, [r2]
    c028:	2a000001 	bcs	c034 <_IO_file_underflow_mmap+0x20>
    c02c:	e8bd4010 	pop	{r4, lr}
    c030:	e12fff1e 	bx	lr
    c034:	ebffff03 	bl	bc48 <mmap_remap_check>
    c038:	e3500000 	cmp	r0, #0	; 0x0
    c03c:	1a000007 	bne	c060 <_IO_file_underflow_mmap+0x4c>
    c040:	e9940009 	ldmib	r4, {r0, r3}
    c044:	e1500003 	cmp	r0, r3
    c048:	25943000 	ldrcs	r3, [r4]
    c04c:	23833010 	orrcs	r3, r3, #16	; 0x10
    c050:	35d00000 	ldrbcc	r0, [r0]
    c054:	25843000 	strcs	r3, [r4]
    c058:	23e00000 	mvncs	r0, #0	; 0x0
    c05c:	eafffff2 	b	c02c <_IO_file_underflow_mmap+0x18>
    c060:	e1a00004 	mov	r0, r4
    c064:	e5943098 	ldr	r3, [r4, #152]
    c068:	e593c010 	ldr	ip, [r3, #16]
    c06c:	e1a0e00f 	mov	lr, pc
    c070:	e12fff1c 	bx	ip
    c074:	eaffffec 	b	c02c <_IO_file_underflow_mmap+0x18>

0000c078 <_IO_file_xsgetn>:
    c078:	e590301c 	ldr	r3, [r0, #28]
    c07c:	e3530000 	cmp	r3, #0	; 0x0
    c080:	e92d41f0 	push	{r4, r5, r6, r7, r8, lr}
    c084:	e1a05000 	mov	r5, r0
    c088:	e1a04001 	mov	r4, r1
    c08c:	e1a08002 	mov	r8, r2
    c090:	0a000068 	beq	c238 <_IO_file_xsgetn+0x1c0>
    c094:	e3580000 	cmp	r8, #0	; 0x0
    c098:	0a000043 	beq	c1ac <_IO_file_xsgetn+0x134>
    c09c:	e1a07004 	mov	r7, r4
    c0a0:	e9950018 	ldmib	r5, {r3, r4}
    c0a4:	e0444003 	sub	r4, r4, r3
    c0a8:	e1a06008 	mov	r6, r8
    c0ac:	e1540006 	cmp	r4, r6
    c0b0:	e5951004 	ldr	r1, [r5, #4]
    c0b4:	2a000036 	bcs	c194 <_IO_file_xsgetn+0x11c>
    c0b8:	e3540000 	cmp	r4, #0	; 0x0
    c0bc:	1a000040 	bne	c1c4 <_IO_file_xsgetn+0x14c>
    c0c0:	e5953000 	ldr	r3, [r5]
    c0c4:	e3130c01 	tst	r3, #256	; 0x100
    c0c8:	1a00003a 	bne	c1b8 <_IO_file_xsgetn+0x140>
    c0cc:	e595101c 	ldr	r1, [r5, #28]
    c0d0:	e3510000 	cmp	r1, #0	; 0x0
    c0d4:	0a000003 	beq	c0e8 <_IO_file_xsgetn+0x70>
    c0d8:	e5953020 	ldr	r3, [r5, #32]
    c0dc:	e0613003 	rsb	r3, r1, r3
    c0e0:	e1560003 	cmp	r6, r3
    c0e4:	3a00003f 	bcc	c1e8 <_IO_file_xsgetn+0x170>
    c0e8:	e3510000 	cmp	r1, #0	; 0x0
    c0ec:	e585100c 	str	r1, [r5, #12]
    c0f0:	e5851004 	str	r1, [r5, #4]
    c0f4:	e5851008 	str	r1, [r5, #8]
    c0f8:	e5851014 	str	r1, [r5, #20]
    c0fc:	e5851010 	str	r1, [r5, #16]
    c100:	e5851018 	str	r1, [r5, #24]
    c104:	e1a02006 	mov	r2, r6
    c108:	0a000006 	beq	c128 <_IO_file_xsgetn+0xb0>
    c10c:	e5953020 	ldr	r3, [r5, #32]
    c110:	e0611003 	rsb	r1, r1, r3
    c114:	e351007f 	cmp	r1, #127	; 0x7f
    c118:	9a000002 	bls	c128 <_IO_file_xsgetn+0xb0>
    c11c:	e1a00006 	mov	r0, r6
    c120:	eb015b45 	bl	62e3c <__aeabi_uidivmod>
    c124:	e0612006 	rsb	r2, r1, r6
    c128:	e5953098 	ldr	r3, [r5, #152]
    c12c:	e1a00005 	mov	r0, r5
    c130:	e1a01007 	mov	r1, r7
    c134:	e593c038 	ldr	ip, [r3, #56]
    c138:	e1a0e00f 	mov	lr, pc
    c13c:	e12fff1c 	bx	ip
    c140:	e3500000 	cmp	r0, #0	; 0x0
    c144:	da000030 	ble	c20c <_IO_file_xsgetn+0x194>
    c148:	e2852050 	add	r2, r5, #80	; 0x50
    c14c:	e8920006 	ldm	r2, {r1, r2}
    c150:	e3710001 	cmn	r1, #1	; 0x1
    c154:	e0877000 	add	r7, r7, r0
    c158:	e0606006 	rsb	r6, r0, r6
    c15c:	0a000027 	beq	c200 <_IO_file_xsgetn+0x188>
    c160:	e1a03000 	mov	r3, r0
    c164:	e1a04fc3 	asr	r4, r3, #31
    c168:	e0933001 	adds	r3, r3, r1
    c16c:	e0a44002 	adc	r4, r4, r2
    c170:	e5853050 	str	r3, [r5, #80]
    c174:	e5854054 	str	r4, [r5, #84]
    c178:	e3560000 	cmp	r6, #0	; 0x0
    c17c:	0a00000a 	beq	c1ac <_IO_file_xsgetn+0x134>
    c180:	e9950018 	ldmib	r5, {r3, r4}
    c184:	e0444003 	sub	r4, r4, r3
    c188:	e1540006 	cmp	r4, r6
    c18c:	e5951004 	ldr	r1, [r5, #4]
    c190:	3affffc8 	bcc	c0b8 <_IO_file_xsgetn+0x40>
    c194:	e1a00007 	mov	r0, r7
    c198:	e1a02006 	mov	r2, r6
    c19c:	eb002867 	bl	16340 <memcpy>
    c1a0:	e5953004 	ldr	r3, [r5, #4]
    c1a4:	e0833006 	add	r3, r3, r6
    c1a8:	e5853004 	str	r3, [r5, #4]
    c1ac:	e1a00008 	mov	r0, r8
    c1b0:	e8bd41f0 	pop	{r4, r5, r6, r7, r8, lr}
    c1b4:	e12fff1e 	bx	lr
    c1b8:	e1a00005 	mov	r0, r5
    c1bc:	eb000639 	bl	daa8 <_IO_switch_to_main_get_area>
    c1c0:	eaffffec 	b	c178 <_IO_file_xsgetn+0x100>
    c1c4:	e1a00007 	mov	r0, r7
    c1c8:	e1a02004 	mov	r2, r4
    c1cc:	eb00282b 	bl	16280 <__mempcpy>
    c1d0:	e5953004 	ldr	r3, [r5, #4]
    c1d4:	e0833004 	add	r3, r3, r4
    c1d8:	e1a07000 	mov	r7, r0
    c1dc:	e5853004 	str	r3, [r5, #4]
    c1e0:	e0646006 	rsb	r6, r4, r6
    c1e4:	eaffffb5 	b	c0c0 <_IO_file_xsgetn+0x48>
    c1e8:	e1a00005 	mov	r0, r5
    c1ec:	eb0009e5 	bl	e988 <__underflow>
    c1f0:	e3700001 	cmn	r0, #1	; 0x1
    c1f4:	1affffdf 	bne	c178 <_IO_file_xsgetn+0x100>
    c1f8:	e0668008 	rsb	r8, r6, r8
    c1fc:	eaffffea 	b	c1ac <_IO_file_xsgetn+0x134>
    c200:	e3720001 	cmn	r2, #1	; 0x1
    c204:	1affffd5 	bne	c160 <_IO_file_xsgetn+0xe8>
    c208:	eaffffda 	b	c178 <_IO_file_xsgetn+0x100>
    c20c:	1a000004 	bne	c224 <_IO_file_xsgetn+0x1ac>
    c210:	e5953000 	ldr	r3, [r5]
    c214:	e3833010 	orr	r3, r3, #16	; 0x10
    c218:	e5853000 	str	r3, [r5]
    c21c:	e0668008 	rsb	r8, r6, r8
    c220:	eaffffe1 	b	c1ac <_IO_file_xsgetn+0x134>
    c224:	e5953000 	ldr	r3, [r5]
    c228:	e3833020 	orr	r3, r3, #32	; 0x20
    c22c:	e5853000 	str	r3, [r5]
    c230:	e0668008 	rsb	r8, r6, r8
    c234:	eaffffdc 	b	c1ac <_IO_file_xsgetn+0x134>
    c238:	e5900024 	ldr	r0, [r0, #36]
    c23c:	e3500000 	cmp	r0, #0	; 0x0
    c240:	0a000003 	beq	c254 <_IO_file_xsgetn+0x1dc>
    c244:	eb00164c 	bl	11b7c <__cfree>
    c248:	e5953000 	ldr	r3, [r5]
    c24c:	e3c33c01 	bic	r3, r3, #256	; 0x100
    c250:	e5853000 	str	r3, [r5]
    c254:	e1a00005 	mov	r0, r5
    c258:	eb0007d5 	bl	e1b4 <_IO_doallocbuf>
    c25c:	eaffff8c 	b	c094 <_IO_file_xsgetn+0x1c>

0000c260 <new_do_write>:
    c260:	e92d40f0 	push	{r4, r5, r6, r7, lr}
    c264:	e5903000 	ldr	r3, [r0]
    c268:	e2134a01 	ands	r4, r3, #4096	; 0x1000
    c26c:	e24dd00c 	sub	sp, sp, #12	; 0xc
    c270:	e1a05000 	mov	r5, r0
    c274:	e1a07001 	mov	r7, r1
    c278:	e1a06002 	mov	r6, r2
    c27c:	0a00001e 	beq	c2fc <new_do_write+0x9c>
    c280:	e3e03000 	mvn	r3, #0	; 0x0
    c284:	e3e04000 	mvn	r4, #0	; 0x0
    c288:	e5803050 	str	r3, [r0, #80]
    c28c:	e5804054 	str	r4, [r0, #84]
    c290:	e5953098 	ldr	r3, [r5, #152]
    c294:	e1a02006 	mov	r2, r6
    c298:	e1a00005 	mov	r0, r5
    c29c:	e1a01007 	mov	r1, r7
    c2a0:	e593c03c 	ldr	ip, [r3, #60]
    c2a4:	e1a0e00f 	mov	lr, pc
    c2a8:	e12fff1c 	bx	ip
    c2ac:	e1d534b4 	ldrh	r3, [r5, #68]
    c2b0:	e3530000 	cmp	r3, #0	; 0x0
    c2b4:	13500000 	cmpne	r0, #0	; 0x0
    c2b8:	e1a04000 	mov	r4, r0
    c2bc:	1a000028 	bne	c364 <new_do_write+0x104>
    c2c0:	e595306c 	ldr	r3, [r5, #108]
    c2c4:	e595201c 	ldr	r2, [r5, #28]
    c2c8:	e3530000 	cmp	r3, #0	; 0x0
    c2cc:	e585200c 	str	r2, [r5, #12]
    c2d0:	e5852004 	str	r2, [r5, #4]
    c2d4:	e5852008 	str	r2, [r5, #8]
    c2d8:	e5852014 	str	r2, [r5, #20]
    c2dc:	e5852010 	str	r2, [r5, #16]
    c2e0:	da000016 	ble	c340 <new_do_write+0xe0>
    c2e4:	e5953020 	ldr	r3, [r5, #32]
    c2e8:	e5853018 	str	r3, [r5, #24]
    c2ec:	e1a00004 	mov	r0, r4
    c2f0:	e28dd00c 	add	sp, sp, #12	; 0xc
    c2f4:	e8bd40f0 	pop	{r4, r5, r6, r7, lr}
    c2f8:	e12fff1e 	bx	lr
    c2fc:	e5903008 	ldr	r3, [r0, #8]
    c300:	e5902010 	ldr	r2, [r0, #16]
    c304:	e1530002 	cmp	r3, r2
    c308:	0affffe0 	beq	c290 <new_do_write+0x30>
    c30c:	e0632002 	rsb	r2, r3, r2
    c310:	e3a03001 	mov	r3, #1	; 0x1
    c314:	e58d3000 	str	r3, [sp]
    c318:	e1a03fc2 	asr	r3, r2, #31
    c31c:	e590c098 	ldr	ip, [r0, #152]
    c320:	e59cc040 	ldr	ip, [ip, #64]
    c324:	e1a0e00f 	mov	lr, pc
    c328:	e12fff1c 	bx	ip
    c32c:	e3700001 	cmn	r0, #1	; 0x1
    c330:	0a000012 	beq	c380 <new_do_write+0x120>
    c334:	e5850050 	str	r0, [r5, #80]
    c338:	e5851054 	str	r1, [r5, #84]
    c33c:	eaffffd3 	b	c290 <new_do_write+0x30>
    c340:	e5953000 	ldr	r3, [r5]
    c344:	e3c33f7f 	bic	r3, r3, #508	; 0x1fc
    c348:	e3c33001 	bic	r3, r3, #1	; 0x1
    c34c:	e1a03b03 	lsl	r3, r3, #22
    c350:	e1a03b23 	lsr	r3, r3, #22
    c354:	e3530000 	cmp	r3, #0	; 0x0
    c358:	11a03002 	movne	r3, r2
    c35c:	05953020 	ldreq	r3, [r5, #32]
    c360:	eaffffe0 	b	c2e8 <new_do_write+0x88>
    c364:	e2430001 	sub	r0, r3, #1	; 0x1
    c368:	e1a01007 	mov	r1, r7
    c36c:	e1a02004 	mov	r2, r4
    c370:	eb0006aa 	bl	de20 <_IO_adjust_column>
    c374:	e2800001 	add	r0, r0, #1	; 0x1
    c378:	e1c504b4 	strh	r0, [r5, #68]
    c37c:	eaffffcf 	b	c2c0 <new_do_write+0x60>
    c380:	e3710001 	cmn	r1, #1	; 0x1
    c384:	1affffea 	bne	c334 <new_do_write+0xd4>
    c388:	eaffffd7 	b	c2ec <new_do_write+0x8c>

0000c38c <_IO_new_file_xsputn>:
    c38c:	e92d47f0 	push	{r4, r5, r6, r7, r8, r9, sl, lr}
    c390:	e2527000 	subs	r7, r2, #0	; 0x0
    c394:	e1a06000 	mov	r6, r0
    c398:	e1a05001 	mov	r5, r1
    c39c:	01a00007 	moveq	r0, r7
    c3a0:	0a00001c 	beq	c418 <_IO_new_file_xsputn+0x8c>
    c3a4:	e5963000 	ldr	r3, [r6]
    c3a8:	e3130c02 	tst	r3, #512	; 0x200
    c3ac:	e1a0a001 	mov	sl, r1
    c3b0:	1a00001a 	bne	c420 <_IO_new_file_xsputn+0x94>
    c3b4:	e2860014 	add	r0, r6, #20	; 0x14
    c3b8:	e8900009 	ldm	r0, {r0, r3}
    c3bc:	e1530000 	cmp	r3, r0
    c3c0:	91a04007 	movls	r4, r7
    c3c4:	8a00002c 	bhi	c47c <_IO_new_file_xsputn+0xf0>
    c3c8:	e5963098 	ldr	r3, [r6, #152]
    c3cc:	e1a00006 	mov	r0, r6
    c3d0:	e3e01000 	mvn	r1, #0	; 0x0
    c3d4:	e593c00c 	ldr	ip, [r3, #12]
    c3d8:	e1a0e00f 	mov	lr, pc
    c3dc:	e12fff1c 	bx	ip
    c3e0:	e3700001 	cmn	r0, #1	; 0x1
    c3e4:	0a000044 	beq	c4fc <_IO_new_file_xsputn+0x170>
    c3e8:	e2863020 	add	r3, r6, #32	; 0x20
    c3ec:	e813000a 	ldmda	r3, {r1, r3}
    c3f0:	e0431001 	sub	r1, r3, r1
    c3f4:	e351007f 	cmp	r1, #127	; 0x7f
    c3f8:	93a01000 	movls	r1, #0	; 0x0
    c3fc:	81a00004 	movhi	r0, r4
    c400:	8b015a8d 	blhi	62e3c <__aeabi_uidivmod>
    c404:	e0545001 	subs	r5, r4, r1
    c408:	1a000045 	bne	c524 <_IO_new_file_xsputn+0x198>
    c40c:	e3540000 	cmp	r4, #0	; 0x0
    c410:	1a00003c 	bne	c508 <_IO_new_file_xsputn+0x17c>
    c414:	e0640007 	rsb	r0, r4, r7
    c418:	e8bd47f0 	pop	{r4, r5, r6, r7, r8, r9, sl, lr}
    c41c:	e12fff1e 	bx	lr
    c420:	e3130b02 	tst	r3, #2048	; 0x800
    c424:	0affffe2 	beq	c3b4 <_IO_new_file_xsputn+0x28>
    c428:	e5963020 	ldr	r3, [r6, #32]
    c42c:	e5960014 	ldr	r0, [r6, #20]
    c430:	e0602003 	rsb	r2, r0, r3
    c434:	e1570002 	cmp	r7, r2
    c438:	8a000010 	bhi	c480 <_IO_new_file_xsputn+0xf4>
    c43c:	e0811007 	add	r1, r1, r7
    c440:	e1550001 	cmp	r5, r1
    c444:	2a00003f 	bcs	c548 <_IO_new_file_xsputn+0x1bc>
    c448:	e5513001 	ldrb	r3, [r1, #-1]
    c44c:	e353000a 	cmp	r3, #10	; 0xa
    c450:	e2411001 	sub	r1, r1, #1	; 0x1
    c454:	0a000004 	beq	c46c <_IO_new_file_xsputn+0xe0>
    c458:	e1550001 	cmp	r5, r1
    c45c:	2a000039 	bcs	c548 <_IO_new_file_xsputn+0x1bc>
    c460:	e5713001 	ldrb	r3, [r1, #-1]!
    c464:	e353000a 	cmp	r3, #10	; 0xa
    c468:	1afffffa 	bne	c458 <_IO_new_file_xsputn+0xcc>
    c46c:	e2653001 	rsb	r3, r5, #1	; 0x1
    c470:	e0812003 	add	r2, r1, r3
    c474:	e3a08001 	mov	r8, #1	; 0x1
    c478:	ea000001 	b	c484 <_IO_new_file_xsputn+0xf8>
    c47c:	e0602003 	rsb	r2, r0, r3
    c480:	e3a08000 	mov	r8, #0	; 0x0
    c484:	e3520000 	cmp	r2, #0	; 0x0
    c488:	01a04007 	moveq	r4, r7
    c48c:	0a00000e 	beq	c4cc <_IO_new_file_xsputn+0x140>
    c490:	e1520007 	cmp	r2, r7
    c494:	31a04002 	movcc	r4, r2
    c498:	21a04007 	movcs	r4, r7
    c49c:	e3540014 	cmp	r4, #20	; 0x14
    c4a0:	93a02000 	movls	r2, #0	; 0x0
    c4a4:	8a00000d 	bhi	c4e0 <_IO_new_file_xsputn+0x154>
    c4a8:	e7d53002 	ldrb	r3, [r5, r2]
    c4ac:	e7c03002 	strb	r3, [r0, r2]
    c4b0:	e2822001 	add	r2, r2, #1	; 0x1
    c4b4:	e1520004 	cmp	r2, r4
    c4b8:	1afffffa 	bne	c4a8 <_IO_new_file_xsputn+0x11c>
    c4bc:	e0803004 	add	r3, r0, r4
    c4c0:	e5863014 	str	r3, [r6, #20]
    c4c4:	e085a004 	add	sl, r5, r4
    c4c8:	e0644007 	rsb	r4, r4, r7
    c4cc:	e0843008 	add	r3, r4, r8
    c4d0:	e3530000 	cmp	r3, #0	; 0x0
    c4d4:	1affffbb 	bne	c3c8 <_IO_new_file_xsputn+0x3c>
    c4d8:	e0640007 	rsb	r0, r4, r7
    c4dc:	eaffffcd 	b	c418 <_IO_new_file_xsputn+0x8c>
    c4e0:	e1a02004 	mov	r2, r4
    c4e4:	e1a01005 	mov	r1, r5
    c4e8:	eb002764 	bl	16280 <__mempcpy>
    c4ec:	e085a004 	add	sl, r5, r4
    c4f0:	e5860014 	str	r0, [r6, #20]
    c4f4:	e0644007 	rsb	r4, r4, r7
    c4f8:	eafffff3 	b	c4cc <_IO_new_file_xsputn+0x140>
    c4fc:	e3540000 	cmp	r4, #0	; 0x0
    c500:	10640007 	rsbne	r0, r4, r7
    c504:	eaffffc3 	b	c418 <_IO_new_file_xsputn+0x8c>
    c508:	e1a02004 	mov	r2, r4
    c50c:	e08a1005 	add	r1, sl, r5
    c510:	e1a00006 	mov	r0, r6
    c514:	eb0007f4 	bl	e4ec <_IO_default_xsputn>
    c518:	e0604004 	rsb	r4, r0, r4
    c51c:	e0640007 	rsb	r0, r4, r7
    c520:	eaffffbc 	b	c418 <_IO_new_file_xsputn+0x8c>
    c524:	e1a00006 	mov	r0, r6
    c528:	e1a0100a 	mov	r1, sl
    c52c:	e1a02005 	mov	r2, r5
    c530:	ebffff4a 	bl	c260 <new_do_write>
    c534:	e1550000 	cmp	r5, r0
    c538:	e0604004 	rsb	r4, r0, r4
    c53c:	9affffb2 	bls	c40c <_IO_new_file_xsputn+0x80>
    c540:	e0640007 	rsb	r0, r4, r7
    c544:	eaffffb3 	b	c418 <_IO_new_file_xsputn+0x8c>
    c548:	e3a08000 	mov	r8, #0	; 0x0
    c54c:	eaffffcf 	b	c490 <_IO_new_file_xsputn+0x104>

0000c550 <_IO_new_do_write>:
    c550:	e92d4010 	push	{r4, lr}
    c554:	e2524000 	subs	r4, r2, #0	; 0x0
    c558:	1a000002 	bne	c568 <_IO_new_do_write+0x18>
    c55c:	e3a00000 	mov	r0, #0	; 0x0
    c560:	e8bd4010 	pop	{r4, lr}
    c564:	e12fff1e 	bx	lr
    c568:	ebffff3c 	bl	c260 <new_do_write>
    c56c:	e1500004 	cmp	r0, r4
    c570:	13e00000 	mvnne	r0, #0	; 0x0
    c574:	0afffff8 	beq	c55c <_IO_new_do_write+0xc>
    c578:	eafffff8 	b	c560 <_IO_new_do_write+0x10>

0000c57c <_IO_new_file_write>:
    c57c:	e92d41f0 	push	{r4, r5, r6, r7, r8, lr}
    c580:	e2528000 	subs	r8, r2, #0	; 0x0
    c584:	e1a06000 	mov	r6, r0
    c588:	e1a05001 	mov	r5, r1
    c58c:	d3a00000 	movle	r0, #0	; 0x0
    c590:	da000012 	ble	c5e0 <_IO_new_file_write+0x64>
    c594:	e1a04008 	mov	r4, r8
    c598:	ea000002 	b	c5a8 <_IO_new_file_write+0x2c>
    c59c:	e0604004 	rsb	r4, r0, r4
    c5a0:	e3540000 	cmp	r4, #0	; 0x0
    c5a4:	da000019 	ble	c610 <_IO_new_file_write+0x94>
    c5a8:	e596303c 	ldr	r3, [r6, #60]
    c5ac:	e3130002 	tst	r3, #2	; 0x2
    c5b0:	e1a01005 	mov	r1, r5
    c5b4:	e1a02004 	mov	r2, r4
    c5b8:	1a000016 	bne	c618 <_IO_new_file_write+0x9c>
    c5bc:	e5960038 	ldr	r0, [r6, #56]
    c5c0:	eb002ada 	bl	17130 <__libc_write>
    c5c4:	e3500000 	cmp	r0, #0	; 0x0
    c5c8:	e0855000 	add	r5, r5, r0
    c5cc:	aafffff2 	bge	c59c <_IO_new_file_write+0x20>
    c5d0:	e5963000 	ldr	r3, [r6]
    c5d4:	e3833020 	orr	r3, r3, #32	; 0x20
    c5d8:	e5863000 	str	r3, [r6]
    c5dc:	e0640008 	rsb	r0, r4, r8
    c5e0:	e2862050 	add	r2, r6, #80	; 0x50
    c5e4:	e8920006 	ldm	r2, {r1, r2}
    c5e8:	e3520000 	cmp	r2, #0	; 0x0
    c5ec:	ba000005 	blt	c608 <_IO_new_file_write+0x8c>
    c5f0:	e1a03000 	mov	r3, r0
    c5f4:	e1a04fc3 	asr	r4, r3, #31
    c5f8:	e0933001 	adds	r3, r3, r1
    c5fc:	e0a44002 	adc	r4, r4, r2
    c600:	e5863050 	str	r3, [r6, #80]
    c604:	e5864054 	str	r4, [r6, #84]
    c608:	e8bd41f0 	pop	{r4, r5, r6, r7, r8, lr}
    c60c:	e12fff1e 	bx	lr
    c610:	e0640008 	rsb	r0, r4, r8
    c614:	eafffff1 	b	c5e0 <_IO_new_file_write+0x64>
    c618:	e5960038 	ldr	r0, [r6, #56]
    c61c:	e3a07004 	mov	r7, #4	; 0x4
    c620:	ef000000 	svc	0x00000000
    c624:	e3700a01 	cmn	r0, #4096	; 0x1000
    c628:	e1a02000 	mov	r2, r0
    c62c:	9affffe4 	bls	c5c4 <_IO_new_file_write+0x48>
    c630:	e59f3010 	ldr	r3, [pc, #16]	; c648 <_IO_new_file_write+0xcc>
    c634:	ebfff21d 	bl	8eb0 <__aeabi_read_tp>
    c638:	e79f3003 	ldr	r3, [pc, r3]
    c63c:	e2622000 	rsb	r2, r2, #0	; 0x0
    c640:	e7802003 	str	r2, [r0, r3]
    c644:	eaffffe1 	b	c5d0 <_IO_new_file_write+0x54>
    c648:	00076aa4 	.word	0x00076aa4

0000c64c <_IO_file_stat>:
    c64c:	e5903038 	ldr	r3, [r0, #56]
    c650:	e1a02001 	mov	r2, r1
    c654:	e92d4010 	push	{r4, lr}
    c658:	e1a01003 	mov	r1, r3
    c65c:	e3a00003 	mov	r0, #3	; 0x3
    c660:	eb002a4e 	bl	16fa0 <___fxstat64>
    c664:	e8bd4010 	pop	{r4, lr}
    c668:	e12fff1e 	bx	lr

0000c66c <_IO_file_read>:
    c66c:	e590303c 	ldr	r3, [r0, #60]
    c670:	e3130002 	tst	r3, #2	; 0x2
    c674:	e92d4080 	push	{r7, lr}
    c678:	1a000003 	bne	c68c <_IO_file_read+0x20>
    c67c:	e5900038 	ldr	r0, [r0, #56]
    c680:	eb002a86 	bl	170a0 <__libc_read>
    c684:	e8bd4080 	pop	{r7, lr}
    c688:	e12fff1e 	bx	lr
    c68c:	e5900038 	ldr	r0, [r0, #56]
    c690:	e3a07003 	mov	r7, #3	; 0x3
    c694:	ef000000 	svc	0x00000000
    c698:	e3700a01 	cmn	r0, #4096	; 0x1000
    c69c:	e1a02000 	mov	r2, r0
    c6a0:	91a00000 	movls	r0, r0
    c6a4:	9afffff6 	bls	c684 <_IO_file_read+0x18>
    c6a8:	e59f3014 	ldr	r3, [pc, #20]	; c6c4 <_IO_file_read+0x58>
    c6ac:	ebfff1ff 	bl	8eb0 <__aeabi_read_tp>
    c6b0:	e79f3003 	ldr	r3, [pc, r3]
    c6b4:	e2622000 	rsb	r2, r2, #0	; 0x0
    c6b8:	e7802003 	str	r2, [r0, r3]
    c6bc:	e3e00000 	mvn	r0, #0	; 0x0
    c6c0:	eaffffef 	b	c684 <_IO_file_read+0x18>
    c6c4:	00076a2c 	.word	0x00076a2c

0000c6c8 <_IO_new_file_seekoff>:
    c6c8:	e92d4ff0 	push	{r4, r5, r6, r7, r8, r9, sl, fp, lr}
    c6cc:	e1a07000 	mov	r7, r0
    c6d0:	e5971008 	ldr	r1, [r7, #8]
    c6d4:	e590000c 	ldr	r0, [r0, #12]
    c6d8:	e24dd084 	sub	sp, sp, #132	; 0x84
    c6dc:	e1500001 	cmp	r0, r1
    c6e0:	e1a08002 	mov	r8, r2
    c6e4:	e1a09003 	mov	r9, r3
    c6e8:	e28da0a8 	add	sl, sp, #168	; 0xa8
    c6ec:	e89a0c00 	ldm	sl, {sl, fp}
    c6f0:	0a0000f5 	beq	cacc <_IO_new_file_seekoff+0x404>
    c6f4:	e2872010 	add	r2, r7, #16	; 0x10
    c6f8:	e892000c 	ldm	r2, {r2, r3}
    c6fc:	e1a01003 	mov	r1, r3
    c700:	e3a03000 	mov	r3, #0	; 0x0
    c704:	e58d300c 	str	r3, [sp, #12]
    c708:	e35b0000 	cmp	fp, #0	; 0x0
    c70c:	03a08000 	moveq	r8, #0	; 0x0
    c710:	03a09000 	moveq	r9, #0	; 0x0
    c714:	03a0a001 	moveq	sl, #1	; 0x1
    c718:	e1510002 	cmp	r1, r2
    c71c:	8a00003d 	bhi	c818 <_IO_new_file_seekoff+0x150>
    c720:	e5973000 	ldr	r3, [r7]
    c724:	e3130b02 	tst	r3, #2048	; 0x800
    c728:	1a00003a 	bne	c818 <_IO_new_file_seekoff+0x150>
    c72c:	e597301c 	ldr	r3, [r7, #28]
    c730:	e3530000 	cmp	r3, #0	; 0x0
    c734:	0a0000ef 	beq	caf8 <_IO_new_file_seekoff+0x430>
    c738:	e35a0001 	cmp	sl, #1	; 0x1
    c73c:	0a000063 	beq	c8d0 <_IO_new_file_seekoff+0x208>
    c740:	e35a0002 	cmp	sl, #2	; 0x2
    c744:	0a00003e 	beq	c844 <_IO_new_file_seekoff+0x17c>
    c748:	e35b0000 	cmp	fp, #0	; 0x0
    c74c:	0a000075 	beq	c928 <_IO_new_file_seekoff+0x260>
    c750:	e2871050 	add	r1, r7, #80	; 0x50
    c754:	e8910003 	ldm	r1, {r0, r1}
    c758:	e3700001 	cmn	r0, #1	; 0x1
    c75c:	0a00007e 	beq	c95c <_IO_new_file_seekoff+0x294>
    c760:	e597300c 	ldr	r3, [r7, #12]
    c764:	e3530000 	cmp	r3, #0	; 0x0
    c768:	0a00007d 	beq	c964 <_IO_new_file_seekoff+0x29c>
    c76c:	e5972000 	ldr	r2, [r7]
    c770:	e3120c01 	tst	r2, #256	; 0x100
    c774:	e1a0c002 	mov	ip, r2
    c778:	1a00007a 	bne	c968 <_IO_new_file_seekoff+0x2a0>
    c77c:	e597b01c 	ldr	fp, [r7, #28]
    c780:	e5973008 	ldr	r3, [r7, #8]
    c784:	e06b3003 	rsb	r3, fp, r3
    c788:	e1a04fc3 	asr	r4, r3, #31
    c78c:	e1a05000 	mov	r5, r0
    c790:	e1a06001 	mov	r6, r1
    c794:	e0555003 	subs	r5, r5, r3
    c798:	e0c66004 	sbc	r6, r6, r4
    c79c:	e1560009 	cmp	r6, r9
    c7a0:	ca000070 	bgt	c968 <_IO_new_file_seekoff+0x2a0>
    c7a4:	0a0000f1 	beq	cb70 <_IO_new_file_seekoff+0x4a8>
    c7a8:	e1510009 	cmp	r1, r9
    c7ac:	ca000002 	bgt	c7bc <_IO_new_file_seekoff+0xf4>
    c7b0:	1a00006c 	bne	c968 <_IO_new_file_seekoff+0x2a0>
    c7b4:	e1500008 	cmp	r0, r8
    c7b8:	9a00006a 	bls	c968 <_IO_new_file_seekoff+0x2a0>
    c7bc:	e5971054 	ldr	r1, [r7, #84]
    c7c0:	e0653008 	rsb	r3, r5, r8
    c7c4:	e3c22010 	bic	r2, r2, #16	; 0x10
    c7c8:	e08b3003 	add	r3, fp, r3
    c7cc:	e3510000 	cmp	r1, #0	; 0x0
    c7d0:	e887000c 	stm	r7, {r2, r3}
    c7d4:	e587b018 	str	fp, [r7, #24]
    c7d8:	e587b00c 	str	fp, [r7, #12]
    c7dc:	e587b014 	str	fp, [r7, #20]
    c7e0:	e587b010 	str	fp, [r7, #16]
    c7e4:	e5972050 	ldr	r2, [r7, #80]
    c7e8:	ba00004e 	blt	c928 <_IO_new_file_seekoff+0x260>
    c7ec:	e3a03000 	mov	r3, #0	; 0x0
    c7f0:	e58d3000 	str	r3, [sp]
    c7f4:	e1a00007 	mov	r0, r7
    c7f8:	e1a03001 	mov	r3, r1
    c7fc:	e597c098 	ldr	ip, [r7, #152]
    c800:	e59cc040 	ldr	ip, [ip, #64]
    c804:	e1a0e00f 	mov	lr, pc
    c808:	e12fff1c 	bx	ip
    c80c:	e1a05008 	mov	r5, r8
    c810:	e1a06009 	mov	r6, r9
    c814:	ea000005 	b	c830 <_IO_new_file_seekoff+0x168>
    c818:	e1a00007 	mov	r0, r7
    c81c:	eb0004bd 	bl	db18 <_IO_switch_to_get_mode>
    c820:	e3500000 	cmp	r0, #0	; 0x0
    c824:	0affffc0 	beq	c72c <_IO_new_file_seekoff+0x64>
    c828:	e3e05000 	mvn	r5, #0	; 0x0
    c82c:	e3e06000 	mvn	r6, #0	; 0x0
    c830:	e1a01006 	mov	r1, r6
    c834:	e1a00005 	mov	r0, r5
    c838:	e28dd084 	add	sp, sp, #132	; 0x84
    c83c:	e8bd4ff0 	pop	{r4, r5, r6, r7, r8, r9, sl, fp, lr}
    c840:	e12fff1e 	bx	lr
    c844:	e5973098 	ldr	r3, [r7, #152]
    c848:	e1a00007 	mov	r0, r7
    c84c:	e28d1018 	add	r1, sp, #24	; 0x18
    c850:	e593c048 	ldr	ip, [r3, #72]
    c854:	e1a0e00f 	mov	lr, pc
    c858:	e12fff1c 	bx	ip
    c85c:	e3500000 	cmp	r0, #0	; 0x0
    c860:	0a000033 	beq	c934 <_IO_new_file_seekoff+0x26c>
    c864:	e1a00007 	mov	r0, r7
    c868:	eb000717 	bl	e4cc <_IO_unsave_markers>
    c86c:	e58da000 	str	sl, [sp]
    c870:	e1a02008 	mov	r2, r8
    c874:	e1a03009 	mov	r3, r9
    c878:	e597c098 	ldr	ip, [r7, #152]
    c87c:	e1a00007 	mov	r0, r7
    c880:	e59cc040 	ldr	ip, [ip, #64]
    c884:	e1a0e00f 	mov	lr, pc
    c888:	e12fff1c 	bx	ip
    c88c:	e3700001 	cmn	r0, #1	; 0x1
    c890:	e1a05000 	mov	r5, r0
    c894:	e1a06001 	mov	r6, r1
    c898:	0a000093 	beq	caec <_IO_new_file_seekoff+0x424>
    c89c:	e5973000 	ldr	r3, [r7]
    c8a0:	e597201c 	ldr	r2, [r7, #28]
    c8a4:	e3c33010 	bic	r3, r3, #16	; 0x10
    c8a8:	e5872018 	str	r2, [r7, #24]
    c8ac:	e5873000 	str	r3, [r7]
    c8b0:	e5875050 	str	r5, [r7, #80]
    c8b4:	e5876054 	str	r6, [r7, #84]
    c8b8:	e587200c 	str	r2, [r7, #12]
    c8bc:	e5872004 	str	r2, [r7, #4]
    c8c0:	e5872008 	str	r2, [r7, #8]
    c8c4:	e5872014 	str	r2, [r7, #20]
    c8c8:	e5872010 	str	r2, [r7, #16]
    c8cc:	eaffffd7 	b	c830 <_IO_new_file_seekoff+0x168>
    c8d0:	e9970009 	ldmib	r7, {r0, r3}
    c8d4:	e0433000 	sub	r3, r3, r0
    c8d8:	e2876050 	add	r6, r7, #80	; 0x50
    c8dc:	e8960060 	ldm	r6, {r5, r6}
    c8e0:	e1a04fc3 	asr	r4, r3, #31
    c8e4:	e0588003 	subs	r8, r8, r3
    c8e8:	e0c99004 	sbc	r9, r9, r4
    c8ec:	e3750001 	cmn	r5, #1	; 0x1
    c8f0:	0a000062 	beq	ca80 <_IO_new_file_seekoff+0x3b8>
    c8f4:	e0988005 	adds	r8, r8, r5
    c8f8:	e0a99006 	adc	r9, r9, r6
    c8fc:	e3590000 	cmp	r9, #0	; 0x0
    c900:	a3a0a000 	movge	sl, #0	; 0x0
    c904:	aaffff8f 	bge	c748 <_IO_new_file_seekoff+0x80>
    c908:	e59f32a4 	ldr	r3, [pc, #676]	; cbb4 <_IO_new_file_seekoff+0x4ec>
    c90c:	ebfff167 	bl	8eb0 <__aeabi_read_tp>
    c910:	e79f3003 	ldr	r3, [pc, r3]
    c914:	e3a02016 	mov	r2, #22	; 0x16
    c918:	e7802003 	str	r2, [r0, r3]
    c91c:	e3e05000 	mvn	r5, #0	; 0x0
    c920:	e3e06000 	mvn	r6, #0	; 0x0
    c924:	eaffffc1 	b	c830 <_IO_new_file_seekoff+0x168>
    c928:	e1a05008 	mov	r5, r8
    c92c:	e1a06009 	mov	r6, r9
    c930:	eaffffbe 	b	c830 <_IO_new_file_seekoff+0x168>
    c934:	e59d3028 	ldr	r3, [sp, #40]
    c938:	e2033a0f 	and	r3, r3, #61440	; 0xf000
    c93c:	e3530902 	cmp	r3, #32768	; 0x8000
    c940:	1affffc7 	bne	c864 <_IO_new_file_seekoff+0x19c>
    c944:	e28d4048 	add	r4, sp, #72	; 0x48
    c948:	e8940018 	ldm	r4, {r3, r4}
    c94c:	e0988003 	adds	r8, r8, r3
    c950:	e0a99004 	adc	r9, r9, r4
    c954:	e1a0a000 	mov	sl, r0
    c958:	eaffff7a 	b	c748 <_IO_new_file_seekoff+0x80>
    c95c:	e3710001 	cmn	r1, #1	; 0x1
    c960:	1affff7e 	bne	c760 <_IO_new_file_seekoff+0x98>
    c964:	e597c000 	ldr	ip, [r7]
    c968:	e31c0004 	tst	ip, #4	; 0x4
    c96c:	1affffbc 	bne	c864 <_IO_new_file_seekoff+0x19c>
    c970:	e287101c 	add	r1, r7, #28	; 0x1c
    c974:	e8910006 	ldm	r1, {r1, r2}
    c978:	e0623001 	rsb	r3, r2, r1
    c97c:	e1a04fc3 	asr	r4, r3, #31
    c980:	e0612002 	rsb	r2, r1, r2
    c984:	e0080003 	and	r0, r8, r3
    c988:	e0091004 	and	r1, r9, r4
    c98c:	e1a05008 	mov	r5, r8
    c990:	e1a06009 	mov	r6, r9
    c994:	e0555000 	subs	r5, r5, r0
    c998:	e0c66001 	sbc	r6, r6, r1
    c99c:	e1a03fc2 	asr	r3, r2, #31
    c9a0:	e1560003 	cmp	r6, r3
    c9a4:	ca000079 	bgt	cb90 <_IO_new_file_seekoff+0x4c8>
    c9a8:	0a000076 	beq	cb88 <_IO_new_file_seekoff+0x4c0>
    c9ac:	e3a03000 	mov	r3, #0	; 0x0
    c9b0:	e58d3000 	str	r3, [sp]
    c9b4:	e1a02000 	mov	r2, r0
    c9b8:	e1a03001 	mov	r3, r1
    c9bc:	e597c098 	ldr	ip, [r7, #152]
    c9c0:	e1a00007 	mov	r0, r7
    c9c4:	e59cc040 	ldr	ip, [ip, #64]
    c9c8:	e1a0e00f 	mov	lr, pc
    c9cc:	e12fff1c 	bx	ip
    c9d0:	e3510000 	cmp	r1, #0	; 0x0
    c9d4:	e58d0010 	str	r0, [sp, #16]
    c9d8:	e58d1014 	str	r1, [sp, #20]
    c9dc:	baffff91 	blt	c828 <_IO_new_file_seekoff+0x160>
    c9e0:	e1950006 	orrs	r0, r5, r6
    c9e4:	0a00006e 	beq	cba4 <_IO_new_file_seekoff+0x4dc>
    c9e8:	e59d100c 	ldr	r1, [sp, #12]
    c9ec:	e5973098 	ldr	r3, [r7, #152]
    c9f0:	e3510000 	cmp	r1, #0	; 0x0
    c9f4:	e593c038 	ldr	ip, [r3, #56]
    c9f8:	e597101c 	ldr	r1, [r7, #28]
    c9fc:	05973020 	ldreq	r3, [r7, #32]
    ca00:	11a02005 	movne	r2, r5
    ca04:	00612003 	rsbeq	r2, r1, r3
    ca08:	e1a00007 	mov	r0, r7
    ca0c:	e1a0e00f 	mov	lr, pc
    ca10:	e12fff1c 	bx	ip
    ca14:	e1a0a000 	mov	sl, r0
    ca18:	e1a0bfca 	asr	fp, sl, #31
    ca1c:	e156000b 	cmp	r6, fp
    ca20:	ca000047 	bgt	cb44 <_IO_new_file_seekoff+0x47c>
    ca24:	0a000044 	beq	cb3c <_IO_new_file_seekoff+0x474>
    ca28:	e1a0c000 	mov	ip, r0
    ca2c:	e28d1010 	add	r1, sp, #16	; 0x10
    ca30:	e8910003 	ldm	r1, {r0, r1}
    ca34:	e597201c 	ldr	r2, [r7, #28]
    ca38:	e5973000 	ldr	r3, [r7]
    ca3c:	e09aa000 	adds	sl, sl, r0
    ca40:	e0abb001 	adc	fp, fp, r1
    ca44:	e082000c 	add	r0, r2, ip
    ca48:	e0821005 	add	r1, r2, r5
    ca4c:	e3c33010 	bic	r3, r3, #16	; 0x10
    ca50:	e5873000 	str	r3, [r7]
    ca54:	e5871004 	str	r1, [r7, #4]
    ca58:	e5870008 	str	r0, [r7, #8]
    ca5c:	e5872018 	str	r2, [r7, #24]
    ca60:	e587a050 	str	sl, [r7, #80]
    ca64:	e587b054 	str	fp, [r7, #84]
    ca68:	e587200c 	str	r2, [r7, #12]
    ca6c:	e5872014 	str	r2, [r7, #20]
    ca70:	e5872010 	str	r2, [r7, #16]
    ca74:	e1a05008 	mov	r5, r8
    ca78:	e1a06009 	mov	r6, r9
    ca7c:	eaffff6b 	b	c830 <_IO_new_file_seekoff+0x168>
    ca80:	e3760001 	cmn	r6, #1	; 0x1
    ca84:	1affff9a 	bne	c8f4 <_IO_new_file_seekoff+0x22c>
    ca88:	e35b0000 	cmp	fp, #0	; 0x0
    ca8c:	1affff74 	bne	c864 <_IO_new_file_seekoff+0x19c>
    ca90:	e58da000 	str	sl, [sp]
    ca94:	e1a00007 	mov	r0, r7
    ca98:	e597c098 	ldr	ip, [r7, #152]
    ca9c:	e3a02000 	mov	r2, #0	; 0x0
    caa0:	e3a03000 	mov	r3, #0	; 0x0
    caa4:	e59cc040 	ldr	ip, [ip, #64]
    caa8:	e1a0e00f 	mov	lr, pc
    caac:	e12fff1c 	bx	ip
    cab0:	e3700001 	cmn	r0, #1	; 0x1
    cab4:	e1a05000 	mov	r5, r0
    cab8:	e1a06001 	mov	r6, r1
    cabc:	0a00002e 	beq	cb7c <_IO_new_file_seekoff+0x4b4>
    cac0:	e5875050 	str	r5, [r7, #80]
    cac4:	e5876054 	str	r6, [r7, #84]
    cac8:	eaffff89 	b	c8f4 <_IO_new_file_seekoff+0x22c>
    cacc:	e2872010 	add	r2, r7, #16	; 0x10
    cad0:	e892000c 	ldm	r2, {r2, r3}
    cad4:	e1520003 	cmp	r2, r3
    cad8:	03a00001 	moveq	r0, #1	; 0x1
    cadc:	e1a01002 	mov	r1, r2
    cae0:	058d000c 	streq	r0, [sp, #12]
    cae4:	1affff04 	bne	c6fc <_IO_new_file_seekoff+0x34>
    cae8:	eaffff06 	b	c708 <_IO_new_file_seekoff+0x40>
    caec:	e3710001 	cmn	r1, #1	; 0x1
    caf0:	1affff69 	bne	c89c <_IO_new_file_seekoff+0x1d4>
    caf4:	eaffff4d 	b	c830 <_IO_new_file_seekoff+0x168>
    caf8:	e597000c 	ldr	r0, [r7, #12]
    cafc:	e3500000 	cmp	r0, #0	; 0x0
    cb00:	0a000003 	beq	cb14 <_IO_new_file_seekoff+0x44c>
    cb04:	eb00141c 	bl	11b7c <__cfree>
    cb08:	e5973000 	ldr	r3, [r7]
    cb0c:	e3c33c01 	bic	r3, r3, #256	; 0x100
    cb10:	e5873000 	str	r3, [r7]
    cb14:	e1a00007 	mov	r0, r7
    cb18:	eb0005a5 	bl	e1b4 <_IO_doallocbuf>
    cb1c:	e597301c 	ldr	r3, [r7, #28]
    cb20:	e5873008 	str	r3, [r7, #8]
    cb24:	e5873014 	str	r3, [r7, #20]
    cb28:	e5873010 	str	r3, [r7, #16]
    cb2c:	e5873018 	str	r3, [r7, #24]
    cb30:	e587300c 	str	r3, [r7, #12]
    cb34:	e5873004 	str	r3, [r7, #4]
    cb38:	eafffefe 	b	c738 <_IO_new_file_seekoff+0x70>
    cb3c:	e155000a 	cmp	r5, sl
    cb40:	9affffb8 	bls	ca28 <_IO_new_file_seekoff+0x360>
    cb44:	e3700001 	cmn	r0, #1	; 0x1
    cb48:	01a08005 	moveq	r8, r5
    cb4c:	01a09006 	moveq	r9, r6
    cb50:	03a0a001 	moveq	sl, #1	; 0x1
    cb54:	0affff42 	beq	c864 <_IO_new_file_seekoff+0x19c>
    cb58:	e1a08005 	mov	r8, r5
    cb5c:	e1a09006 	mov	r9, r6
    cb60:	e058800a 	subs	r8, r8, sl
    cb64:	e0c9900b 	sbc	r9, r9, fp
    cb68:	e3a0a001 	mov	sl, #1	; 0x1
    cb6c:	eaffff3c 	b	c864 <_IO_new_file_seekoff+0x19c>
    cb70:	e1550008 	cmp	r5, r8
    cb74:	8affff7b 	bhi	c968 <_IO_new_file_seekoff+0x2a0>
    cb78:	eaffff0a 	b	c7a8 <_IO_new_file_seekoff+0xe0>
    cb7c:	e3710001 	cmn	r1, #1	; 0x1
    cb80:	1affffce 	bne	cac0 <_IO_new_file_seekoff+0x3f8>
    cb84:	eaffff29 	b	c830 <_IO_new_file_seekoff+0x168>
    cb88:	e1550002 	cmp	r5, r2
    cb8c:	9affff86 	bls	c9ac <_IO_new_file_seekoff+0x2e4>
    cb90:	e1a00008 	mov	r0, r8
    cb94:	e1a01009 	mov	r1, r9
    cb98:	e3a05000 	mov	r5, #0	; 0x0
    cb9c:	e3a06000 	mov	r6, #0	; 0x0
    cba0:	eaffff81 	b	c9ac <_IO_new_file_seekoff+0x2e4>
    cba4:	e1a0c000 	mov	ip, r0
    cba8:	e3a0a000 	mov	sl, #0	; 0x0
    cbac:	e3a0b000 	mov	fp, #0	; 0x0
    cbb0:	eaffff9d 	b	ca2c <_IO_new_file_seekoff+0x364>
    cbb4:	000767cc 	.word	0x000767cc

0000cbb8 <_IO_new_file_sync>:
    cbb8:	e92d4030 	push	{r4, r5, lr}
    cbbc:	e2801010 	add	r1, r0, #16	; 0x10
    cbc0:	e8910006 	ldm	r1, {r1, r2}
    cbc4:	e1520001 	cmp	r2, r1
    cbc8:	e24dd00c 	sub	sp, sp, #12	; 0xc
    cbcc:	e1a05000 	mov	r5, r0
    cbd0:	8a000022 	bhi	cc60 <_IO_new_file_sync+0xa8>
    cbd4:	e995000c 	ldmib	r5, {r2, r3}
    cbd8:	e0422003 	sub	r2, r2, r3
    cbdc:	e3520000 	cmp	r2, #0	; 0x0
    cbe0:	1a000007 	bne	cc04 <_IO_new_file_sync+0x4c>
    cbe4:	e3e03000 	mvn	r3, #0	; 0x0
    cbe8:	e3e04000 	mvn	r4, #0	; 0x0
    cbec:	e5853050 	str	r3, [r5, #80]
    cbf0:	e5854054 	str	r4, [r5, #84]
    cbf4:	e3a00000 	mov	r0, #0	; 0x0
    cbf8:	e28dd00c 	add	sp, sp, #12	; 0xc
    cbfc:	e8bd4030 	pop	{r4, r5, lr}
    cc00:	e12fff1e 	bx	lr
    cc04:	e3a03001 	mov	r3, #1	; 0x1
    cc08:	e58d3000 	str	r3, [sp]
    cc0c:	e1a00005 	mov	r0, r5
    cc10:	e1a03fc2 	asr	r3, r2, #31
    cc14:	e595c098 	ldr	ip, [r5, #152]
    cc18:	e59cc040 	ldr	ip, [ip, #64]
    cc1c:	e1a0e00f 	mov	lr, pc
    cc20:	e12fff1c 	bx	ip
    cc24:	e3700001 	cmn	r0, #1	; 0x1
    cc28:	0a000002 	beq	cc38 <_IO_new_file_sync+0x80>
    cc2c:	e5953004 	ldr	r3, [r5, #4]
    cc30:	e5853008 	str	r3, [r5, #8]
    cc34:	eaffffea 	b	cbe4 <_IO_new_file_sync+0x2c>
    cc38:	e3710001 	cmn	r1, #1	; 0x1
    cc3c:	1afffffa 	bne	cc2c <_IO_new_file_sync+0x74>
    cc40:	e59f306c 	ldr	r3, [pc, #108]	; ccb4 <_IO_new_file_sync+0xfc>
    cc44:	ebfff099 	bl	8eb0 <__aeabi_read_tp>
    cc48:	e79f3003 	ldr	r3, [pc, r3]
    cc4c:	e7902003 	ldr	r2, [r0, r3]
    cc50:	e352001d 	cmp	r2, #29	; 0x1d
    cc54:	0affffe2 	beq	cbe4 <_IO_new_file_sync+0x2c>
    cc58:	e3e00000 	mvn	r0, #0	; 0x0
    cc5c:	eaffffe5 	b	cbf8 <_IO_new_file_sync+0x40>
    cc60:	e590306c 	ldr	r3, [r0, #108]
    cc64:	e3530000 	cmp	r3, #0	; 0x0
    cc68:	da00000c 	ble	cca0 <_IO_new_file_sync+0xe8>
    cc6c:	e590305c 	ldr	r3, [r0, #92]
    cc70:	e2831010 	add	r1, r3, #16	; 0x10
    cc74:	e8110006 	ldmda	r1, {r1, r2}
    cc78:	e0422001 	sub	r2, r2, r1
    cc7c:	e593100c 	ldr	r1, [r3, #12]
    cc80:	e1a02142 	asr	r2, r2, #2
    cc84:	ebfff8ba 	bl	af74 <_IO_wdo_write>
    cc88:	e2500000 	subs	r0, r0, #0	; 0x0
    cc8c:	13a00001 	movne	r0, #1	; 0x1
    cc90:	e3500000 	cmp	r0, #0	; 0x0
    cc94:	0affffce 	beq	cbd4 <_IO_new_file_sync+0x1c>
    cc98:	e3e00000 	mvn	r0, #0	; 0x0
    cc9c:	eaffffd5 	b	cbf8 <_IO_new_file_sync+0x40>
    cca0:	e0612002 	rsb	r2, r1, r2
    cca4:	ebfffe29 	bl	c550 <_IO_new_do_write>
    cca8:	e2500000 	subs	r0, r0, #0	; 0x0
    ccac:	13a00001 	movne	r0, #1	; 0x1
    ccb0:	eafffff6 	b	cc90 <_IO_new_file_sync+0xd8>
    ccb4:	00076494 	.word	0x00076494

0000ccb8 <_IO_new_file_overflow>:
    ccb8:	e92d4070 	push	{r4, r5, r6, lr}
    ccbc:	e1a05000 	mov	r5, r0
    ccc0:	e5900000 	ldr	r0, [r0]
    ccc4:	e3100008 	tst	r0, #8	; 0x8
    ccc8:	e1a06001 	mov	r6, r1
    cccc:	1a00004e 	bne	ce0c <_IO_new_file_overflow+0x154>
    ccd0:	e3100b02 	tst	r0, #2048	; 0x800
    ccd4:	0a00001c 	beq	cd4c <_IO_new_file_overflow+0x94>
    ccd8:	e5953010 	ldr	r3, [r5, #16]
    ccdc:	e3530000 	cmp	r3, #0	; 0x0
    cce0:	0a000041 	beq	cdec <_IO_new_file_overflow+0x134>
    cce4:	e3760001 	cmn	r6, #1	; 0x1
    cce8:	0a000036 	beq	cdc8 <_IO_new_file_overflow+0x110>
    ccec:	e5952014 	ldr	r2, [r5, #20]
    ccf0:	e5953020 	ldr	r3, [r5, #32]
    ccf4:	e1520003 	cmp	r2, r3
    ccf8:	0a00004c 	beq	ce30 <_IO_new_file_overflow+0x178>
    ccfc:	e20640ff 	and	r4, r6, #255	; 0xff
    cd00:	e4c24001 	strb	r4, [r2], #1
    cd04:	e5951000 	ldr	r1, [r5]
    cd08:	e3110002 	tst	r1, #2	; 0x2
    cd0c:	e5852014 	str	r2, [r5, #20]
    cd10:	1a000004 	bne	cd28 <_IO_new_file_overflow+0x70>
    cd14:	e356000a 	cmp	r6, #10	; 0xa
    cd18:	13a03000 	movne	r3, #0	; 0x0
    cd1c:	03a03001 	moveq	r3, #1	; 0x1
    cd20:	e01334a1 	ands	r3, r3, r1, lsr #9
    cd24:	0a000005 	beq	cd40 <_IO_new_file_overflow+0x88>
    cd28:	e5951010 	ldr	r1, [r5, #16]
    cd2c:	e1a00005 	mov	r0, r5
    cd30:	e0612002 	rsb	r2, r1, r2
    cd34:	ebfffe05 	bl	c550 <_IO_new_do_write>
    cd38:	e3700001 	cmn	r0, #1	; 0x1
    cd3c:	0a000028 	beq	cde4 <_IO_new_file_overflow+0x12c>
    cd40:	e1a00004 	mov	r0, r4
    cd44:	e8bd4070 	pop	{r4, r5, r6, lr}
    cd48:	e12fff1e 	bx	lr
    cd4c:	e5953010 	ldr	r3, [r5, #16]
    cd50:	e3530000 	cmp	r3, #0	; 0x0
    cd54:	0a000024 	beq	cdec <_IO_new_file_overflow+0x134>
    cd58:	e3100c01 	tst	r0, #256	; 0x100
    cd5c:	1a000045 	bne	ce78 <_IO_new_file_overflow+0x1c0>
    cd60:	e5951004 	ldr	r1, [r5, #4]
    cd64:	e595c020 	ldr	ip, [r5, #32]
    cd68:	e151000c 	cmp	r1, ip
    cd6c:	0595301c 	ldreq	r3, [r5, #28]
    cd70:	05853008 	streq	r3, [r5, #8]
    cd74:	01a01003 	moveq	r1, r3
    cd78:	05853004 	streq	r3, [r5, #4]
    cd7c:	e595306c 	ldr	r3, [r5, #108]
    cd80:	e5952008 	ldr	r2, [r5, #8]
    cd84:	e3530000 	cmp	r3, #0	; 0x0
    cd88:	e3803b02 	orr	r3, r0, #2048	; 0x800
    cd8c:	e585c018 	str	ip, [r5, #24]
    cd90:	e585200c 	str	r2, [r5, #12]
    cd94:	e5851014 	str	r1, [r5, #20]
    cd98:	e5851010 	str	r1, [r5, #16]
    cd9c:	e5852004 	str	r2, [r5, #4]
    cda0:	e5853000 	str	r3, [r5]
    cda4:	caffffce 	bgt	cce4 <_IO_new_file_overflow+0x2c>
    cda8:	e3c33f7f 	bic	r3, r3, #508	; 0x1fc
    cdac:	e3c33001 	bic	r3, r3, #1	; 0x1
    cdb0:	e1a03b03 	lsl	r3, r3, #22
    cdb4:	e1a03b23 	lsr	r3, r3, #22
    cdb8:	e3530000 	cmp	r3, #0	; 0x0
    cdbc:	15851018 	strne	r1, [r5, #24]
    cdc0:	e3760001 	cmn	r6, #1	; 0x1
    cdc4:	1affffc8 	bne	ccec <_IO_new_file_overflow+0x34>
    cdc8:	e5951010 	ldr	r1, [r5, #16]
    cdcc:	e2853014 	add	r3, r5, #20	; 0x14
    cdd0:	e813000c 	ldmda	r3, {r2, r3}
    cdd4:	e0432002 	sub	r2, r3, r2
    cdd8:	e1a00005 	mov	r0, r5
    cddc:	e8bd4070 	pop	{r4, r5, r6, lr}
    cde0:	eafffdda 	b	c550 <_IO_new_do_write>
    cde4:	e3e00000 	mvn	r0, #0	; 0x0
    cde8:	eaffffd5 	b	cd44 <_IO_new_file_overflow+0x8c>
    cdec:	e1a00005 	mov	r0, r5
    cdf0:	eb0004ef 	bl	e1b4 <_IO_doallocbuf>
    cdf4:	e595301c 	ldr	r3, [r5, #28]
    cdf8:	e5950000 	ldr	r0, [r5]
    cdfc:	e5853008 	str	r3, [r5, #8]
    ce00:	e585300c 	str	r3, [r5, #12]
    ce04:	e5853004 	str	r3, [r5, #4]
    ce08:	eaffffd2 	b	cd58 <_IO_new_file_overflow+0xa0>
    ce0c:	e3803020 	orr	r3, r0, #32	; 0x20
    ce10:	e5853000 	str	r3, [r5]
    ce14:	e59f20b4 	ldr	r2, [pc, #180]	; ced0 <_IO_new_file_overflow+0x218>
    ce18:	ebfff024 	bl	8eb0 <__aeabi_read_tp>
    ce1c:	e79f2002 	ldr	r2, [pc, r2]
    ce20:	e3a03009 	mov	r3, #9	; 0x9
    ce24:	e7803002 	str	r3, [r0, r2]
    ce28:	e3e00000 	mvn	r0, #0	; 0x0
    ce2c:	eaffffc4 	b	cd44 <_IO_new_file_overflow+0x8c>
    ce30:	e595306c 	ldr	r3, [r5, #108]
    ce34:	e3530000 	cmp	r3, #0	; 0x0
    ce38:	da00001c 	ble	ceb0 <_IO_new_file_overflow+0x1f8>
    ce3c:	e595305c 	ldr	r3, [r5, #92]
    ce40:	e2831010 	add	r1, r3, #16	; 0x10
    ce44:	e8110006 	ldmda	r1, {r1, r2}
    ce48:	e0422001 	sub	r2, r2, r1
    ce4c:	e1a00005 	mov	r0, r5
    ce50:	e593100c 	ldr	r1, [r3, #12]
    ce54:	e1a02142 	asr	r2, r2, #2
    ce58:	ebfff845 	bl	af74 <_IO_wdo_write>
    ce5c:	e3700001 	cmn	r0, #1	; 0x1
    ce60:	13a00000 	movne	r0, #0	; 0x0
    ce64:	03a00001 	moveq	r0, #1	; 0x1
    ce68:	e3500000 	cmp	r0, #0	; 0x0
    ce6c:	1affffdc 	bne	cde4 <_IO_new_file_overflow+0x12c>
    ce70:	e5952014 	ldr	r2, [r5, #20]
    ce74:	eaffffa0 	b	ccfc <_IO_new_file_overflow+0x44>
    ce78:	e1a00005 	mov	r0, r5
    ce7c:	e9950012 	ldmib	r5, {r1, r4}
    ce80:	e0444001 	sub	r4, r4, r1
    ce84:	eb000575 	bl	e460 <_IO_free_backup_area>
    ce88:	e595200c 	ldr	r2, [r5, #12]
    ce8c:	e595301c 	ldr	r3, [r5, #28]
    ce90:	e0633002 	rsb	r3, r3, r2
    ce94:	e1530004 	cmp	r3, r4
    ce98:	21a03004 	movcs	r3, r4
    ce9c:	e0632002 	rsb	r2, r3, r2
    cea0:	e5852004 	str	r2, [r5, #4]
    cea4:	e585200c 	str	r2, [r5, #12]
    cea8:	e5950000 	ldr	r0, [r5]
    ceac:	eaffffab 	b	cd60 <_IO_new_file_overflow+0xa8>
    ceb0:	e5951010 	ldr	r1, [r5, #16]
    ceb4:	e1a00005 	mov	r0, r5
    ceb8:	e0612002 	rsb	r2, r1, r2
    cebc:	ebfffda3 	bl	c550 <_IO_new_do_write>
    cec0:	e3700001 	cmn	r0, #1	; 0x1
    cec4:	13a00000 	movne	r0, #0	; 0x0
    cec8:	03a00001 	moveq	r0, #1	; 0x1
    cecc:	eaffffe5 	b	ce68 <_IO_new_file_overflow+0x1b0>
    ced0:	000762c0 	.word	0x000762c0

0000ced4 <_IO_new_file_underflow>:
    ced4:	e5902000 	ldr	r2, [r0]
    ced8:	e3120004 	tst	r2, #4	; 0x4
    cedc:	e92d47f0 	push	{r4, r5, r6, r7, r8, r9, sl, lr}
    cee0:	e1a05000 	mov	r5, r0
    cee4:	1a00009b 	bne	d158 <_IO_new_file_underflow+0x284>
    cee8:	e5900004 	ldr	r0, [r0, #4]
    ceec:	e5953008 	ldr	r3, [r5, #8]
    cef0:	e1500003 	cmp	r0, r3
    cef4:	35d00000 	ldrbcc	r0, [r0]
    cef8:	3a000057 	bcc	d05c <_IO_new_file_underflow+0x188>
    cefc:	e595301c 	ldr	r3, [r5, #28]
    cf00:	e3530000 	cmp	r3, #0	; 0x0
    cf04:	0a000085 	beq	d120 <_IO_new_file_underflow+0x24c>
    cf08:	e3c23f7f 	bic	r3, r2, #508	; 0x1fc
    cf0c:	e3c33001 	bic	r3, r3, #1	; 0x1
    cf10:	e1a03b03 	lsl	r3, r3, #22
    cf14:	e1a03b23 	lsr	r3, r3, #22
    cf18:	e3530000 	cmp	r3, #0	; 0x0
    cf1c:	0a00002c 	beq	cfd4 <_IO_new_file_underflow+0x100>
    cf20:	e59fa2f8 	ldr	sl, [pc, #760]	; d220 <_IO_new_file_underflow+0x34c>
    cf24:	e59a6000 	ldr	r6, [sl]
    cf28:	e5963000 	ldr	r3, [r6]
    cf2c:	e2134902 	ands	r4, r3, #32768	; 0x8000
    cf30:	0a00004b 	beq	d064 <_IO_new_file_underflow+0x190>
    cf34:	e59a2000 	ldr	r2, [sl]
    cf38:	e5923000 	ldr	r3, [r2]
    cf3c:	e2033fa2 	and	r3, r3, #648	; 0x288
    cf40:	e3530d0a 	cmp	r3, #640	; 0x280
    cf44:	0a00006e 	beq	d104 <_IO_new_file_underflow+0x230>
    cf48:	e5963000 	ldr	r3, [r6]
    cf4c:	e3130902 	tst	r3, #32768	; 0x8000
    cf50:	1a00001f 	bne	cfd4 <_IO_new_file_underflow+0x100>
    cf54:	e5966048 	ldr	r6, [r6, #72]
    cf58:	e5963004 	ldr	r3, [r6, #4]
    cf5c:	e2433001 	sub	r3, r3, #1	; 0x1
    cf60:	e3530000 	cmp	r3, #0	; 0x0
    cf64:	e5863004 	str	r3, [r6, #4]
    cf68:	1a000019 	bne	cfd4 <_IO_new_file_underflow+0x100>
    cf6c:	e5863008 	str	r3, [r6, #8]
    cf70:	e5967000 	ldr	r7, [r6]
    cf74:	e3a01000 	mov	r1, #0	; 0x0
    cf78:	e1a02006 	mov	r2, r6
    cf7c:	e1a04007 	mov	r4, r7
    cf80:	e5923000 	ldr	r3, [r2]
    cf84:	e1530004 	cmp	r3, r4
    cf88:	1a000005 	bne	cfa4 <_IO_new_file_underflow+0xd0>
    cf8c:	e1a00004 	mov	r0, r4
    cf90:	e3e03a0f 	mvn	r3, #61440	; 0xf000
    cf94:	e1a0e00f 	mov	lr, pc
    cf98:	e243f03f 	sub	pc, r3, #63	; 0x3f
    cf9c:	3afffff7 	bcc	cf80 <_IO_new_file_underflow+0xac>
    cfa0:	e1a03004 	mov	r3, r4
    cfa4:	e1570003 	cmp	r7, r3
    cfa8:	1afffff0 	bne	cf70 <_IO_new_file_underflow+0x9c>
    cfac:	e3570001 	cmp	r7, #1	; 0x1
    cfb0:	da000007 	ble	cfd4 <_IO_new_file_underflow+0x100>
    cfb4:	ebffefbd 	bl	8eb0 <__aeabi_read_tp>
    cfb8:	e5102498 	ldr	r2, [r0, #-1176]
    cfbc:	e1a03001 	mov	r3, r1
    cfc0:	e1a00006 	mov	r0, r6
    cfc4:	e3821001 	orr	r1, r2, #1	; 0x1
    cfc8:	e3a070f0 	mov	r7, #240	; 0xf0
    cfcc:	e3a02001 	mov	r2, #1	; 0x1
    cfd0:	ef000000 	svc	0x00000000
    cfd4:	e1a00005 	mov	r0, r5
    cfd8:	eb0002ce 	bl	db18 <_IO_switch_to_get_mode>
    cfdc:	e595301c 	ldr	r3, [r5, #28]
    cfe0:	e5952020 	ldr	r2, [r5, #32]
    cfe4:	e1a01003 	mov	r1, r3
    cfe8:	e5853004 	str	r3, [r5, #4]
    cfec:	e585300c 	str	r3, [r5, #12]
    cff0:	e5853008 	str	r3, [r5, #8]
    cff4:	e5853018 	str	r3, [r5, #24]
    cff8:	e5853014 	str	r3, [r5, #20]
    cffc:	e5853010 	str	r3, [r5, #16]
    d000:	e0632002 	rsb	r2, r3, r2
    d004:	e1a00005 	mov	r0, r5
    d008:	e5953098 	ldr	r3, [r5, #152]
    d00c:	e593c038 	ldr	ip, [r3, #56]
    d010:	e1a0e00f 	mov	lr, pc
    d014:	e12fff1c 	bx	ip
    d018:	e3500000 	cmp	r0, #0	; 0x0
    d01c:	da00002f 	ble	d0e0 <_IO_new_file_underflow+0x20c>
    d020:	e5953008 	ldr	r3, [r5, #8]
    d024:	e2852050 	add	r2, r5, #80	; 0x50
    d028:	e8920006 	ldm	r2, {r1, r2}
    d02c:	e0833000 	add	r3, r3, r0
    d030:	e3710001 	cmn	r1, #1	; 0x1
    d034:	e5853008 	str	r3, [r5, #8]
    d038:	0a000043 	beq	d14c <_IO_new_file_underflow+0x278>
    d03c:	e1a03000 	mov	r3, r0
    d040:	e1a04fc3 	asr	r4, r3, #31
    d044:	e0933001 	adds	r3, r3, r1
    d048:	e0a44002 	adc	r4, r4, r2
    d04c:	e5853050 	str	r3, [r5, #80]
    d050:	e5854054 	str	r4, [r5, #84]
    d054:	e5953004 	ldr	r3, [r5, #4]
    d058:	e5d30000 	ldrb	r0, [r3]
    d05c:	e8bd47f0 	pop	{r4, r5, r6, r7, r8, r9, sl, lr}
    d060:	e12fff1e 	bx	lr
    d064:	e5967048 	ldr	r7, [r6, #72]
    d068:	ebffef90 	bl	8eb0 <__aeabi_read_tp>
    d06c:	e5973008 	ldr	r3, [r7, #8]
    d070:	e2408e4a 	sub	r8, r0, #1184	; 0x4a0
    d074:	e1530008 	cmp	r3, r8
    d078:	0a00000f 	beq	d0bc <_IO_new_file_underflow+0x1e8>
    d07c:	e3a01001 	mov	r1, #1	; 0x1
    d080:	e1a02007 	mov	r2, r7
    d084:	e5923000 	ldr	r3, [r2]
    d088:	e1530004 	cmp	r3, r4
    d08c:	1a000005 	bne	d0a8 <_IO_new_file_underflow+0x1d4>
    d090:	e1a00004 	mov	r0, r4
    d094:	e3e03a0f 	mvn	r3, #61440	; 0xf000
    d098:	e1a0e00f 	mov	lr, pc
    d09c:	e243f03f 	sub	pc, r3, #63	; 0x3f
    d0a0:	3afffff7 	bcc	d084 <_IO_new_file_underflow+0x1b0>
    d0a4:	e1a03004 	mov	r3, r4
    d0a8:	e3530000 	cmp	r3, #0	; 0x0
    d0ac:	1a000032 	bne	d17c <_IO_new_file_underflow+0x2a8>
    d0b0:	e5963048 	ldr	r3, [r6, #72]
    d0b4:	e5838008 	str	r8, [r3, #8]
    d0b8:	e1a07003 	mov	r7, r3
    d0bc:	e5973004 	ldr	r3, [r7, #4]
    d0c0:	e2833001 	add	r3, r3, #1	; 0x1
    d0c4:	e5873004 	str	r3, [r7, #4]
    d0c8:	e59a2000 	ldr	r2, [sl]
    d0cc:	e5923000 	ldr	r3, [r2]
    d0d0:	e2033fa2 	and	r3, r3, #648	; 0x288
    d0d4:	e3530d0a 	cmp	r3, #640	; 0x280
    d0d8:	1affff9a 	bne	cf48 <_IO_new_file_underflow+0x74>
    d0dc:	ea000008 	b	d104 <_IO_new_file_underflow+0x230>
    d0e0:	05953000 	ldreq	r3, [r5]
    d0e4:	15953000 	ldrne	r3, [r5]
    d0e8:	03833010 	orreq	r3, r3, #16	; 0x10
    d0ec:	13833020 	orrne	r3, r3, #32	; 0x20
    d0f0:	05853000 	streq	r3, [r5]
    d0f4:	03e00000 	mvneq	r0, #0	; 0x0
    d0f8:	15853000 	strne	r3, [r5]
    d0fc:	13e00000 	mvnne	r0, #0	; 0x0
    d100:	eaffffd5 	b	d05c <_IO_new_file_underflow+0x188>
    d104:	e1a00002 	mov	r0, r2
    d108:	e5923098 	ldr	r3, [r2, #152]
    d10c:	e3e01000 	mvn	r1, #0	; 0x0
    d110:	e593c00c 	ldr	ip, [r3, #12]
    d114:	e1a0e00f 	mov	lr, pc
    d118:	e12fff1c 	bx	ip
    d11c:	eaffff89 	b	cf48 <_IO_new_file_underflow+0x74>
    d120:	e5950024 	ldr	r0, [r5, #36]
    d124:	e3500000 	cmp	r0, #0	; 0x0
    d128:	0a000003 	beq	d13c <_IO_new_file_underflow+0x268>
    d12c:	eb001292 	bl	11b7c <__cfree>
    d130:	e5953000 	ldr	r3, [r5]
    d134:	e3c33c01 	bic	r3, r3, #256	; 0x100
    d138:	e5853000 	str	r3, [r5]
    d13c:	e1a00005 	mov	r0, r5
    d140:	eb00041b 	bl	e1b4 <_IO_doallocbuf>
    d144:	e5952000 	ldr	r2, [r5]
    d148:	eaffff6e 	b	cf08 <_IO_new_file_underflow+0x34>
    d14c:	e3720001 	cmn	r2, #1	; 0x1
    d150:	1affffb9 	bne	d03c <_IO_new_file_underflow+0x168>
    d154:	eaffffbe 	b	d054 <_IO_new_file_underflow+0x180>
    d158:	e3823020 	orr	r3, r2, #32	; 0x20
    d15c:	e5803000 	str	r3, [r0]
    d160:	e59f20bc 	ldr	r2, [pc, #188]	; d224 <_IO_new_file_underflow+0x350>
    d164:	ebffef51 	bl	8eb0 <__aeabi_read_tp>
    d168:	e79f2002 	ldr	r2, [pc, r2]
    d16c:	e3a03009 	mov	r3, #9	; 0x9
    d170:	e7803002 	str	r3, [r0, r2]
    d174:	e3e00000 	mvn	r0, #0	; 0x0
    d178:	eaffffb7 	b	d05c <_IO_new_file_underflow+0x188>
    d17c:	e1a00007 	mov	r0, r7
    d180:	eb002b96 	bl	17fe0 <__lll_lock_wait_private>
    d184:	eaffffc9 	b	d0b0 <_IO_new_file_underflow+0x1dc>
    d188:	e5963000 	ldr	r3, [r6]
    d18c:	e3130902 	tst	r3, #32768	; 0x8000
    d190:	e1a08000 	mov	r8, r0
    d194:	1a00001f 	bne	d218 <_IO_new_file_underflow+0x344>
    d198:	e5966048 	ldr	r6, [r6, #72]
    d19c:	e5963004 	ldr	r3, [r6, #4]
    d1a0:	e2433001 	sub	r3, r3, #1	; 0x1
    d1a4:	e3530000 	cmp	r3, #0	; 0x0
    d1a8:	e5863004 	str	r3, [r6, #4]
    d1ac:	1a000019 	bne	d218 <_IO_new_file_underflow+0x344>
    d1b0:	e5863008 	str	r3, [r6, #8]
    d1b4:	e5965000 	ldr	r5, [r6]
    d1b8:	e3a01000 	mov	r1, #0	; 0x0
    d1bc:	e1a02006 	mov	r2, r6
    d1c0:	e1a04005 	mov	r4, r5
    d1c4:	e5923000 	ldr	r3, [r2]
    d1c8:	e1530004 	cmp	r3, r4
    d1cc:	1a000005 	bne	d1e8 <_IO_new_file_underflow+0x314>
    d1d0:	e1a00004 	mov	r0, r4
    d1d4:	e3e03a0f 	mvn	r3, #61440	; 0xf000
    d1d8:	e1a0e00f 	mov	lr, pc
    d1dc:	e243f03f 	sub	pc, r3, #63	; 0x3f
    d1e0:	3afffff7 	bcc	d1c4 <_IO_new_file_underflow+0x2f0>
    d1e4:	e1a03004 	mov	r3, r4
    d1e8:	e1550003 	cmp	r5, r3
    d1ec:	1afffff0 	bne	d1b4 <_IO_new_file_underflow+0x2e0>
    d1f0:	e3550001 	cmp	r5, #1	; 0x1
    d1f4:	da000007 	ble	d218 <_IO_new_file_underflow+0x344>
    d1f8:	ebffef2c 	bl	8eb0 <__aeabi_read_tp>
    d1fc:	e5102498 	ldr	r2, [r0, #-1176]
    d200:	e1a03001 	mov	r3, r1
    d204:	e1a00006 	mov	r0, r6
    d208:	e3821001 	orr	r1, r2, #1	; 0x1
    d20c:	e3a070f0 	mov	r7, #240	; 0xf0
    d210:	e3a02001 	mov	r2, #1	; 0x1
    d214:	ef000000 	svc	0x00000000
    d218:	e1a00008 	mov	r0, r8
    d21c:	eb015bd4 	bl	64174 <_Unwind_Resume>
    d220:	00083544 	.word	0x00083544
    d224:	00075f74 	.word	0x00075f74

0000d228 <_IO_new_file_setbuf>:
    d228:	e92d4010 	push	{r4, lr}
    d22c:	e1a04000 	mov	r4, r0
    d230:	eb0003b4 	bl	e108 <_IO_default_setbuf>
    d234:	e3500000 	cmp	r0, #0	; 0x0
    d238:	1594301c 	ldrne	r3, [r4, #28]
    d23c:	01a04000 	moveq	r4, r0
    d240:	15843008 	strne	r3, [r4, #8]
    d244:	15843018 	strne	r3, [r4, #24]
    d248:	15843014 	strne	r3, [r4, #20]
    d24c:	15843010 	strne	r3, [r4, #16]
    d250:	1584300c 	strne	r3, [r4, #12]
    d254:	15843004 	strne	r3, [r4, #4]
    d258:	e1a00004 	mov	r0, r4
    d25c:	e8bd4010 	pop	{r4, lr}
    d260:	e12fff1e 	bx	lr

0000d264 <_IO_file_setbuf_mmap>:
    d264:	e92d4070 	push	{r4, r5, r6, lr}
    d268:	e59f6034 	ldr	r6, [pc, #52]	; d2a4 <_IO_file_setbuf_mmap+0x40>
    d26c:	e590305c 	ldr	r3, [r0, #92]
    d270:	e59f4030 	ldr	r4, [pc, #48]	; d2a8 <_IO_file_setbuf_mmap+0x44>
    d274:	e286c054 	add	ip, r6, #84	; 0x54
    d278:	e580c098 	str	ip, [r0, #152]
    d27c:	e58340b8 	str	r4, [r3, #184]
    d280:	e1a05000 	mov	r5, r0
    d284:	ebffffe7 	bl	d228 <_IO_new_file_setbuf>
    d288:	e3500000 	cmp	r0, #0	; 0x0
    d28c:	0595205c 	ldreq	r2, [r5, #92]
    d290:	059f3014 	ldreq	r3, [pc, #20]	; d2ac <_IO_file_setbuf_mmap+0x48>
    d294:	05856098 	streq	r6, [r5, #152]
    d298:	058230b8 	streq	r3, [r2, #184]
    d29c:	e8bd4070 	pop	{r4, r5, r6, lr}
    d2a0:	e12fff1e 	bx	lr
    d2a4:	000662e0 	.word	0x000662e0
    d2a8:	000661a8 	.word	0x000661a8
    d2ac:	000661fc 	.word	0x000661fc

0000d2b0 <_IO_file_open>:
    d2b0:	e92d40b0 	push	{r4, r5, r7, lr}
    d2b4:	e1a04000 	mov	r4, r0
    d2b8:	e590003c 	ldr	r0, [r0, #60]
    d2bc:	e24dd008 	sub	sp, sp, #8	; 0x8
    d2c0:	e3100002 	tst	r0, #2	; 0x2
    d2c4:	e59d5018 	ldr	r5, [sp, #24]
    d2c8:	e1a00001 	mov	r0, r1
    d2cc:	1a000021 	bne	d358 <_IO_file_open+0xa8>
    d2d0:	e59dc01c 	ldr	ip, [sp, #28]
    d2d4:	e35c0000 	cmp	ip, #0	; 0x0
    d2d8:	03a01802 	moveq	r1, #131072	; 0x20000
    d2dc:	13a01000 	movne	r1, #0	; 0x0
    d2e0:	e1811002 	orr	r1, r1, r2
    d2e4:	e1a02003 	mov	r2, r3
    d2e8:	eb002748 	bl	17010 <__libc_open>
    d2ec:	e1a07000 	mov	r7, r0
    d2f0:	e3570000 	cmp	r7, #0	; 0x0
    d2f4:	ba000028 	blt	d39c <_IO_file_open+0xec>
    d2f8:	e5940000 	ldr	r0, [r4]
    d2fc:	e3c52eff 	bic	r2, r5, #4080	; 0xff0
    d300:	e3c53eff 	bic	r3, r5, #4080	; 0xff0
    d304:	e3c33003 	bic	r3, r3, #3	; 0x3
    d308:	e3c2200b 	bic	r2, r2, #11	; 0xb
    d30c:	e1a03983 	lsl	r3, r3, #19
    d310:	e3c00a01 	bic	r0, r0, #4096	; 0x1000
    d314:	e1a02982 	lsl	r2, r2, #19
    d318:	e3a01a01 	mov	r1, #4096	; 0x1000
    d31c:	e1a039a3 	lsr	r3, r3, #19
    d320:	e3c0000c 	bic	r0, r0, #12	; 0xc
    d324:	e2811004 	add	r1, r1, #4	; 0x4
    d328:	e1a029a2 	lsr	r2, r2, #19
    d32c:	e1833000 	orr	r3, r3, r0
    d330:	e1520001 	cmp	r2, r1
    d334:	e5843000 	str	r3, [r4]
    d338:	e5847038 	str	r7, [r4, #56]
    d33c:	0a000018 	beq	d3a4 <_IO_file_open+0xf4>
    d340:	e1a00004 	mov	r0, r4
    d344:	eb00080a 	bl	f374 <_IO_link_in>
    d348:	e1a00004 	mov	r0, r4
    d34c:	e28dd008 	add	sp, sp, #8	; 0x8
    d350:	e8bd40b0 	pop	{r4, r5, r7, lr}
    d354:	e12fff1e 	bx	lr
    d358:	e59dc01c 	ldr	ip, [sp, #28]
    d35c:	e35c0000 	cmp	ip, #0	; 0x0
    d360:	03a01802 	moveq	r1, #131072	; 0x20000
    d364:	13a01000 	movne	r1, #0	; 0x0
    d368:	e1811002 	orr	r1, r1, r2
    d36c:	e3a07005 	mov	r7, #5	; 0x5
    d370:	e1a02003 	mov	r2, r3
    d374:	ef000000 	svc	0x00000000
    d378:	e3700a01 	cmn	r0, #4096	; 0x1000
    d37c:	e1a02000 	mov	r2, r0
    d380:	91a07000 	movls	r7, r0
    d384:	9affffd9 	bls	d2f0 <_IO_file_open+0x40>
    d388:	e59f3098 	ldr	r3, [pc, #152]	; d428 <_IO_file_open+0x178>
    d38c:	ebffeec7 	bl	8eb0 <__aeabi_read_tp>
    d390:	e79f3003 	ldr	r3, [pc, r3]
    d394:	e2622000 	rsb	r2, r2, #0	; 0x0
    d398:	e7802003 	str	r2, [r0, r3]
    d39c:	e3a04000 	mov	r4, #0	; 0x0
    d3a0:	eaffffe8 	b	d348 <_IO_file_open+0x98>
    d3a4:	e3a03002 	mov	r3, #2	; 0x2
    d3a8:	e3a02003 	mov	r2, #3	; 0x3
    d3ac:	e594c098 	ldr	ip, [r4, #152]
    d3b0:	e1a00004 	mov	r0, r4
    d3b4:	e58d3000 	str	r3, [sp]
    d3b8:	e58d2004 	str	r2, [sp, #4]
    d3bc:	e3a03000 	mov	r3, #0	; 0x0
    d3c0:	e3a02000 	mov	r2, #0	; 0x0
    d3c4:	e59cc024 	ldr	ip, [ip, #36]
    d3c8:	e1a0e00f 	mov	lr, pc
    d3cc:	e12fff1c 	bx	ip
    d3d0:	e3700001 	cmn	r0, #1	; 0x1
    d3d4:	1affffd9 	bne	d340 <_IO_file_open+0x90>
    d3d8:	e3710001 	cmn	r1, #1	; 0x1
    d3dc:	1affffd7 	bne	d340 <_IO_file_open+0x90>
    d3e0:	e59f3044 	ldr	r3, [pc, #68]	; d42c <_IO_file_open+0x17c>
    d3e4:	ebffeeb1 	bl	8eb0 <__aeabi_read_tp>
    d3e8:	e79f3003 	ldr	r3, [pc, r3]
    d3ec:	e7902003 	ldr	r2, [r0, r3]
    d3f0:	e352001d 	cmp	r2, #29	; 0x1d
    d3f4:	e1a01000 	mov	r1, r0
    d3f8:	0affffd0 	beq	d340 <_IO_file_open+0x90>
    d3fc:	e1a00007 	mov	r0, r7
    d400:	e3a07006 	mov	r7, #6	; 0x6
    d404:	ef000000 	svc	0x00000000
    d408:	e3700a01 	cmn	r0, #4096	; 0x1000
    d40c:	9affffe2 	bls	d39c <_IO_file_open+0xec>
    d410:	e59f3018 	ldr	r3, [pc, #24]	; d430 <_IO_file_open+0x180>
    d414:	e2602000 	rsb	r2, r0, #0	; 0x0
    d418:	e79f3003 	ldr	r3, [pc, r3]
    d41c:	e7812003 	str	r2, [r1, r3]
    d420:	e3a04000 	mov	r4, #0	; 0x0
    d424:	eaffffc7 	b	d348 <_IO_file_open+0x98>
    d428:	00075d4c 	.word	0x00075d4c
    d42c:	00075cf4 	.word	0x00075cf4
    d430:	00075cc4 	.word	0x00075cc4

0000d434 <_IO_new_file_init>:
    d434:	e590c000 	ldr	ip, [r0]
    d438:	e3a03b09 	mov	r3, #9216	; 0x2400
    d43c:	e283300c 	add	r3, r3, #12	; 0xc
    d440:	e18cc003 	orr	ip, ip, r3
    d444:	e3e01000 	mvn	r1, #0	; 0x0
    d448:	e3e02000 	mvn	r2, #0	; 0x0
    d44c:	e92d4010 	push	{r4, lr}
    d450:	e5801050 	str	r1, [r0, #80]
    d454:	e5802054 	str	r2, [r0, #84]
    d458:	e580c000 	str	ip, [r0]
    d45c:	e1a04000 	mov	r4, r0
    d460:	eb0007c3 	bl	f374 <_IO_link_in>
    d464:	e3e03000 	mvn	r3, #0	; 0x0
    d468:	e5843038 	str	r3, [r4, #56]
    d46c:	e8bd4010 	pop	{r4, lr}
    d470:	e12fff1e 	bx	lr

0000d474 <_IO_new_file_finish>:
    d474:	e5903038 	ldr	r3, [r0, #56]
    d478:	e3730001 	cmn	r3, #1	; 0x1
    d47c:	e92d4010 	push	{r4, lr}
    d480:	e1a04000 	mov	r4, r0
    d484:	0a00000c 	beq	d4bc <_IO_new_file_finish+0x48>
    d488:	e590306c 	ldr	r3, [r0, #108]
    d48c:	e3530000 	cmp	r3, #0	; 0x0
    d490:	da000014 	ble	d4e8 <_IO_new_file_finish+0x74>
    d494:	e590305c 	ldr	r3, [r0, #92]
    d498:	e2831010 	add	r1, r3, #16	; 0x10
    d49c:	e8110006 	ldmda	r1, {r1, r2}
    d4a0:	e0422001 	sub	r2, r2, r1
    d4a4:	e593100c 	ldr	r1, [r3, #12]
    d4a8:	e1a02142 	asr	r2, r2, #2
    d4ac:	ebfff6b0 	bl	af74 <_IO_wdo_write>
    d4b0:	e5943000 	ldr	r3, [r4]
    d4b4:	e3130040 	tst	r3, #64	; 0x40
    d4b8:	0a000004 	beq	d4d0 <_IO_new_file_finish+0x5c>
    d4bc:	e1a00004 	mov	r0, r4
    d4c0:	e3a01000 	mov	r1, #0	; 0x0
    d4c4:	eb000927 	bl	f968 <_IO_default_finish>
    d4c8:	e8bd4010 	pop	{r4, lr}
    d4cc:	e12fff1e 	bx	lr
    d4d0:	e5943098 	ldr	r3, [r4, #152]
    d4d4:	e1a00004 	mov	r0, r4
    d4d8:	e593c044 	ldr	ip, [r3, #68]
    d4dc:	e1a0e00f 	mov	lr, pc
    d4e0:	e12fff1c 	bx	ip
    d4e4:	eafffff4 	b	d4bc <_IO_new_file_finish+0x48>
    d4e8:	e5901010 	ldr	r1, [r0, #16]
    d4ec:	e2803014 	add	r3, r0, #20	; 0x14
    d4f0:	e813000c 	ldmda	r3, {r2, r3}
    d4f4:	e0432002 	sub	r2, r3, r2
    d4f8:	ebfffc14 	bl	c550 <_IO_new_do_write>
    d4fc:	eaffffeb 	b	d4b0 <_IO_new_file_finish+0x3c>

0000d500 <_IO_new_file_close_it>:
    d500:	e5903038 	ldr	r3, [r0, #56]
    d504:	e3730001 	cmn	r3, #1	; 0x1
    d508:	e92d41f0 	push	{r4, r5, r6, r7, r8, lr}
    d50c:	e1a05000 	mov	r5, r0
    d510:	01a06003 	moveq	r6, r3
    d514:	0a000038 	beq	d5fc <_IO_new_file_close_it+0xfc>
    d518:	e5903000 	ldr	r3, [r0]
    d51c:	e3130008 	tst	r3, #8	; 0x8
    d520:	0a000038 	beq	d608 <_IO_new_file_close_it+0x108>
    d524:	e3a07000 	mov	r7, #0	; 0x0
    d528:	e1a00005 	mov	r0, r5
    d52c:	eb0003e6 	bl	e4cc <_IO_unsave_markers>
    d530:	e5953098 	ldr	r3, [r5, #152]
    d534:	e1a00005 	mov	r0, r5
    d538:	e593c044 	ldr	ip, [r3, #68]
    d53c:	e1a0e00f 	mov	lr, pc
    d540:	e12fff1c 	bx	ip
    d544:	e595306c 	ldr	r3, [r5, #108]
    d548:	e3530000 	cmp	r3, #0	; 0x0
    d54c:	e1a06000 	mov	r6, r0
    d550:	da000011 	ble	d59c <_IO_new_file_close_it+0x9c>
    d554:	e595305c 	ldr	r3, [r5, #92]
    d558:	e5932020 	ldr	r2, [r3, #32]
    d55c:	e3520000 	cmp	r2, #0	; 0x0
    d560:	11a00005 	movne	r0, r5
    d564:	1b00a0c9 	blne	35890 <_IO_free_wbackup_area>
    d568:	e3a01000 	mov	r1, #0	; 0x0
    d56c:	e1a02001 	mov	r2, r1
    d570:	e1a03001 	mov	r3, r1
    d574:	e1a00005 	mov	r0, r5
    d578:	eb00a2c1 	bl	36084 <_IO_wsetb>
    d57c:	e595205c 	ldr	r2, [r5, #92]
    d580:	e3a03000 	mov	r3, #0	; 0x0
    d584:	e5823014 	str	r3, [r2, #20]
    d588:	e5823008 	str	r3, [r2, #8]
    d58c:	e5823000 	str	r3, [r2]
    d590:	e5823004 	str	r3, [r2, #4]
    d594:	e5823010 	str	r3, [r2, #16]
    d598:	e582300c 	str	r3, [r2, #12]
    d59c:	e3a01000 	mov	r1, #0	; 0x0
    d5a0:	e1a02001 	mov	r2, r1
    d5a4:	e1a03001 	mov	r3, r1
    d5a8:	e1a00005 	mov	r0, r5
    d5ac:	eb0002b8 	bl	e094 <_IO_setb>
    d5b0:	e3a03000 	mov	r3, #0	; 0x0
    d5b4:	e5853018 	str	r3, [r5, #24]
    d5b8:	e585300c 	str	r3, [r5, #12]
    d5bc:	e5853004 	str	r3, [r5, #4]
    d5c0:	e5853008 	str	r3, [r5, #8]
    d5c4:	e5853014 	str	r3, [r5, #20]
    d5c8:	e5853010 	str	r3, [r5, #16]
    d5cc:	e1a00005 	mov	r0, r5
    d5d0:	eb000818 	bl	f638 <_IO_un_link>
    d5d4:	e3e04000 	mvn	r4, #0	; 0x0
    d5d8:	e3e03000 	mvn	r3, #0	; 0x0
    d5dc:	e59f2078 	ldr	r2, [pc, #120]	; d65c <_IO_new_file_close_it+0x15c>
    d5e0:	e5853050 	str	r3, [r5, #80]
    d5e4:	e5854054 	str	r4, [r5, #84]
    d5e8:	e3e03000 	mvn	r3, #0	; 0x0
    d5ec:	e3560000 	cmp	r6, #0	; 0x0
    d5f0:	e5852000 	str	r2, [r5]
    d5f4:	e5853038 	str	r3, [r5, #56]
    d5f8:	01a06007 	moveq	r6, r7
    d5fc:	e1a00006 	mov	r0, r6
    d600:	e8bd41f0 	pop	{r4, r5, r6, r7, r8, lr}
    d604:	e12fff1e 	bx	lr
    d608:	e3130b02 	tst	r3, #2048	; 0x800
    d60c:	0affffc4 	beq	d524 <_IO_new_file_close_it+0x24>
    d610:	e590306c 	ldr	r3, [r0, #108]
    d614:	e3530000 	cmp	r3, #0	; 0x0
    d618:	da000008 	ble	d640 <_IO_new_file_close_it+0x140>
    d61c:	e590305c 	ldr	r3, [r0, #92]
    d620:	e2831010 	add	r1, r3, #16	; 0x10
    d624:	e8110006 	ldmda	r1, {r1, r2}
    d628:	e0422001 	sub	r2, r2, r1
    d62c:	e593100c 	ldr	r1, [r3, #12]
    d630:	e1a02142 	asr	r2, r2, #2
    d634:	ebfff64e 	bl	af74 <_IO_wdo_write>
    d638:	e1a07000 	mov	r7, r0
    d63c:	eaffffb9 	b	d528 <_IO_new_file_close_it+0x28>
    d640:	e5901010 	ldr	r1, [r0, #16]
    d644:	e2803014 	add	r3, r0, #20	; 0x14
    d648:	e813000c 	ldmda	r3, {r2, r3}
    d64c:	e0432002 	sub	r2, r3, r2
    d650:	ebfffbbe 	bl	c550 <_IO_new_do_write>
    d654:	e1a07000 	mov	r7, r0
    d658:	eaffffb2 	b	d528 <_IO_new_file_close_it+0x28>
    d65c:	fbad240c 	.word	0xfbad240c

0000d660 <_IO_new_file_fopen>:
    d660:	e92d4ff0 	push	{r4, r5, r6, r7, r8, r9, sl, fp, lr}
    d664:	e28db020 	add	fp, sp, #32	; 0x20
    d668:	e24dd01c 	sub	sp, sp, #28	; 0x1c
    d66c:	e1a07000 	mov	r7, r0
    d670:	e5900038 	ldr	r0, [r0, #56]
    d674:	e3700001 	cmn	r0, #1	; 0x1
    d678:	e1a05003 	mov	r5, r3
    d67c:	13a06000 	movne	r6, #0	; 0x0
    d680:	0a000003 	beq	d694 <_IO_new_file_fopen+0x34>
    d684:	e1a00006 	mov	r0, r6
    d688:	e24bd020 	sub	sp, fp, #32	; 0x20
    d68c:	e8bd4ff0 	pop	{r4, r5, r6, r7, r8, r9, sl, fp, lr}
    d690:	e12fff1e 	bx	lr
    d694:	e5d23000 	ldrb	r3, [r2]
    d698:	e3530072 	cmp	r3, #114	; 0x72
    d69c:	0a0000b8 	beq	d984 <_IO_new_file_fopen+0x324>
    d6a0:	e3530077 	cmp	r3, #119	; 0x77
    d6a4:	0a000008 	beq	d6cc <_IO_new_file_fopen+0x6c>
    d6a8:	e3530061 	cmp	r3, #97	; 0x61
    d6ac:	0a0000b8 	beq	d994 <_IO_new_file_fopen+0x334>
    d6b0:	e59f3398 	ldr	r3, [pc, #920]	; da50 <_IO_new_file_fopen+0x3f0>
    d6b4:	ebffedfd 	bl	8eb0 <__aeabi_read_tp>
    d6b8:	e79f3003 	ldr	r3, [pc, r3]
    d6bc:	e3a02016 	mov	r2, #22	; 0x16
    d6c0:	e7802003 	str	r2, [r0, r3]
    d6c4:	e3a06000 	mov	r6, #0	; 0x0
    d6c8:	eaffffed 	b	d684 <_IO_new_file_fopen+0x24>
    d6cc:	e3a0cd09 	mov	ip, #576	; 0x240
    d6d0:	e3a0e001 	mov	lr, #1	; 0x1
    d6d4:	e3a00004 	mov	r0, #4	; 0x4
    d6d8:	e1a04002 	mov	r4, r2
    d6dc:	e2826005 	add	r6, r2, #5	; 0x5
    d6e0:	e5f23001 	ldrb	r3, [r2, #1]!
    d6e4:	e3530065 	cmp	r3, #101	; 0x65
    d6e8:	0a0000a0 	beq	d970 <_IO_new_file_fopen+0x310>
    d6ec:	8a000093 	bhi	d940 <_IO_new_file_fopen+0x2e0>
    d6f0:	e3530062 	cmp	r3, #98	; 0x62
    d6f4:	0a0000a0 	beq	d97c <_IO_new_file_fopen+0x31c>
    d6f8:	8a0000af 	bhi	d9bc <_IO_new_file_fopen+0x35c>
    d6fc:	e3530000 	cmp	r3, #0	; 0x0
    d700:	1a0000b3 	bne	d9d4 <_IO_new_file_fopen+0x374>
    d704:	e3a03f6d 	mov	r3, #436	; 0x1b4
    d708:	e88d0021 	stm	sp, {r0, r5}
    d70c:	e18e200c 	orr	r2, lr, ip
    d710:	e2833002 	add	r3, r3, #2	; 0x2
    d714:	e1a00007 	mov	r0, r7
    d718:	ebfffee4 	bl	d2b0 <_IO_file_open>
    d71c:	e2506000 	subs	r6, r0, #0	; 0x0
    d720:	0affffd7 	beq	d684 <_IO_new_file_fopen+0x24>
    d724:	e2840001 	add	r0, r4, #1	; 0x1
    d728:	e59f1324 	ldr	r1, [pc, #804]	; da54 <_IO_new_file_fopen+0x3f4>
    d72c:	eb00208f 	bl	15970 <strstr>
    d730:	e250a000 	subs	sl, r0, #0	; 0x0
    d734:	0affffd2 	beq	d684 <_IO_new_file_fopen+0x24>
    d738:	e28a4005 	add	r4, sl, #5	; 0x5
    d73c:	e1a00004 	mov	r0, r4
    d740:	e3a0102c 	mov	r1, #44	; 0x2c
    d744:	e1a0900d 	mov	r9, sp
    d748:	eb0024b9 	bl	16a34 <__strchrnul>
    d74c:	e0642000 	rsb	r2, r4, r0
    d750:	e2823011 	add	r3, r2, #17	; 0x11
    d754:	e3c33007 	bic	r3, r3, #7	; 0x7
    d758:	e04dd003 	sub	sp, sp, r3
    d75c:	e28d5008 	add	r5, sp, #8	; 0x8
    d760:	e1a01004 	mov	r1, r4
    d764:	e1a00005 	mov	r0, r5
    d768:	eb0022c4 	bl	16280 <__mempcpy>
    d76c:	e3a02000 	mov	r2, #0	; 0x0
    d770:	e5c02000 	strb	r2, [r0]
    d774:	e5d51000 	ldrb	r1, [r5]
    d778:	e1510002 	cmp	r1, r2
    d77c:	0a0000a3 	beq	da10 <_IO_new_file_fopen+0x3b0>
    d780:	e59f32d0 	ldr	r3, [pc, #720]	; da58 <_IO_new_file_fopen+0x3f8>
    d784:	e1a08002 	mov	r8, r2
    d788:	e593403c 	ldr	r4, [r3, #60]
    d78c:	e593e034 	ldr	lr, [r3, #52]
    d790:	e1a0c005 	mov	ip, r5
    d794:	e1a00005 	mov	r0, r5
    d798:	ea00000e 	b	d7d8 <_IO_new_file_fopen+0x178>
    d79c:	e351005f 	cmp	r1, #95	; 0x5f
    d7a0:	0a000010 	beq	d7e8 <_IO_new_file_fopen+0x188>
    d7a4:	e351002d 	cmp	r1, #45	; 0x2d
    d7a8:	0a00000e 	beq	d7e8 <_IO_new_file_fopen+0x188>
    d7ac:	e351002e 	cmp	r1, #46	; 0x2e
    d7b0:	0a00000c 	beq	d7e8 <_IO_new_file_fopen+0x188>
    d7b4:	e351002c 	cmp	r1, #44	; 0x2c
    d7b8:	0a00000a 	beq	d7e8 <_IO_new_file_fopen+0x188>
    d7bc:	e351003a 	cmp	r1, #58	; 0x3a
    d7c0:	0a000008 	beq	d7e8 <_IO_new_file_fopen+0x188>
    d7c4:	e351002f 	cmp	r1, #47	; 0x2f
    d7c8:	0a000076 	beq	d9a8 <_IO_new_file_fopen+0x348>
    d7cc:	e5fc1001 	ldrb	r1, [ip, #1]!
    d7d0:	e3510000 	cmp	r1, #0	; 0x0
    d7d4:	0a000008 	beq	d7fc <_IO_new_file_fopen+0x19c>
    d7d8:	e1a03081 	lsl	r3, r1, #1
    d7dc:	e19e20b3 	ldrh	r2, [lr, r3]
    d7e0:	e3120008 	tst	r2, #8	; 0x8
    d7e4:	0affffec 	beq	d79c <_IO_new_file_fopen+0x13c>
    d7e8:	e7943101 	ldr	r3, [r4, r1, lsl #2]
    d7ec:	e4c03001 	strb	r3, [r0], #1
    d7f0:	e5fc1001 	ldrb	r1, [ip, #1]!
    d7f4:	e3510000 	cmp	r1, #0	; 0x0
    d7f8:	1afffff6 	bne	d7d8 <_IO_new_file_fopen+0x178>
    d7fc:	e3580001 	cmp	r8, #1	; 0x1
    d800:	d2882001 	addle	r2, r8, #1	; 0x1
    d804:	ca000005 	bgt	d820 <_IO_new_file_fopen+0x1c0>
    d808:	e3a0102f 	mov	r1, #47	; 0x2f
    d80c:	e2822001 	add	r2, r2, #1	; 0x1
    d810:	e2423001 	sub	r3, r2, #1	; 0x1
    d814:	e3530001 	cmp	r3, #1	; 0x1
    d818:	e4c01001 	strb	r1, [r0], #1
    d81c:	dafffffa 	ble	d80c <_IO_new_file_fopen+0x1ac>
    d820:	e3a03000 	mov	r3, #0	; 0x0
    d824:	e5c03000 	strb	r3, [r0]
    d828:	e5d52002 	ldrb	r2, [r5, #2]
    d82c:	e1520003 	cmp	r2, r3
    d830:	1a00000a 	bne	d860 <_IO_new_file_fopen+0x200>
    d834:	e59f321c 	ldr	r3, [pc, #540]	; da58 <_IO_new_file_fopen+0x3f8>
    d838:	e593c03c 	ldr	ip, [r3, #60]
    d83c:	e1a0000a 	mov	r0, sl
    d840:	e1a01002 	mov	r1, r2
    d844:	e5d03005 	ldrb	r3, [r0, #5]
    d848:	e7dc2103 	ldrb	r2, [ip, r3, lsl #2]
    d84c:	e3520000 	cmp	r2, #0	; 0x0
    d850:	e7c52001 	strb	r2, [r5, r1]
    d854:	e2800001 	add	r0, r0, #1	; 0x1
    d858:	e2811001 	add	r1, r1, #1	; 0x1
    d85c:	1afffff8 	bne	d844 <_IO_new_file_fopen+0x1e4>
    d860:	e1a01005 	mov	r1, r5
    d864:	e24b0034 	sub	r0, fp, #52	; 0x34
    d868:	eb0024de 	bl	16be8 <__wcsmbs_named_conv>
    d86c:	e2505000 	subs	r5, r0, #0	; 0x0
    d870:	1a00005c 	bne	d9e8 <_IO_new_file_fopen+0x388>
    d874:	e51b3030 	ldr	r3, [fp, #-48]
    d878:	e3530001 	cmp	r3, #1	; 0x1
    d87c:	1a00006c 	bne	da34 <_IO_new_file_fopen+0x3d4>
    d880:	e51b8028 	ldr	r8, [fp, #-40]
    d884:	e3580001 	cmp	r8, #1	; 0x1
    d888:	1a000063 	bne	da1c <_IO_new_file_fopen+0x3bc>
    d88c:	e597305c 	ldr	r3, [r7, #92]
    d890:	e5835030 	str	r5, [r3, #48]
    d894:	e583502c 	str	r5, [r3, #44]
    d898:	e5931004 	ldr	r1, [r3, #4]
    d89c:	e593000c 	ldr	r0, [r3, #12]
    d8a0:	e597205c 	ldr	r2, [r7, #92]
    d8a4:	e5831000 	str	r1, [r3]
    d8a8:	e5830010 	str	r0, [r3, #16]
    d8ac:	e5825038 	str	r5, [r2, #56]
    d8b0:	e5825034 	str	r5, [r2, #52]
    d8b4:	e597405c 	ldr	r4, [r7, #92]
    d8b8:	e284003c 	add	r0, r4, #60	; 0x3c
    d8bc:	e3a02078 	mov	r2, #120	; 0x78
    d8c0:	e5870058 	str	r0, [r7, #88]
    d8c4:	e59f1190 	ldr	r1, [pc, #400]	; da5c <_IO_new_file_fopen+0x3fc>
    d8c8:	eb00229c 	bl	16340 <memcpy>
    d8cc:	e51b3030 	ldr	r3, [fp, #-48]
    d8d0:	e584305c 	str	r3, [r4, #92]
    d8d4:	e51b2034 	ldr	r2, [fp, #-52]
    d8d8:	e5845070 	str	r5, [r4, #112]
    d8dc:	e5848074 	str	r8, [r4, #116]
    d8e0:	e584806c 	str	r8, [r4, #108]
    d8e4:	e5842060 	str	r2, [r4, #96]
    d8e8:	e596305c 	ldr	r3, [r6, #92]
    d8ec:	e283302c 	add	r3, r3, #44	; 0x2c
    d8f0:	e5843078 	str	r3, [r4, #120]
    d8f4:	e5845084 	str	r5, [r4, #132]
    d8f8:	e51b3028 	ldr	r3, [fp, #-40]
    d8fc:	e5843088 	str	r3, [r4, #136]
    d900:	e51b202c 	ldr	r2, [fp, #-44]
    d904:	e584509c 	str	r5, [r4, #156]
    d908:	e584208c 	str	r2, [r4, #140]
    d90c:	e58480a0 	str	r8, [r4, #160]
    d910:	e5848098 	str	r8, [r4, #152]
    d914:	e596305c 	ldr	r3, [r6, #92]
    d918:	e59f2140 	ldr	r2, [pc, #320]	; da60 <_IO_new_file_fopen+0x400>
    d91c:	e283302c 	add	r3, r3, #44	; 0x2c
    d920:	e58420b0 	str	r2, [r4, #176]
    d924:	e58430a4 	str	r3, [r4, #164]
    d928:	e597205c 	ldr	r2, [r7, #92]
    d92c:	e59230b8 	ldr	r3, [r2, #184]
    d930:	e586806c 	str	r8, [r6, #108]
    d934:	e5873098 	str	r3, [r7, #152]
    d938:	e1a0d009 	mov	sp, r9
    d93c:	eaffff50 	b	d684 <_IO_new_file_fopen+0x24>
    d940:	e353006d 	cmp	r3, #109	; 0x6d
    d944:	0597303c 	ldreq	r3, [r7, #60]
    d948:	03833001 	orreq	r3, r3, #1	; 0x1
    d94c:	0587303c 	streq	r3, [r7, #60]
    d950:	0a000001 	beq	d95c <_IO_new_file_fopen+0x2fc>
    d954:	e3530078 	cmp	r3, #120	; 0x78
    d958:	0a000006 	beq	d978 <_IO_new_file_fopen+0x318>
    d95c:	e1520006 	cmp	r2, r6
    d960:	0affff67 	beq	d704 <_IO_new_file_fopen+0xa4>
    d964:	e5f23001 	ldrb	r3, [r2, #1]!
    d968:	e3530065 	cmp	r3, #101	; 0x65
    d96c:	1affff5e 	bne	d6ec <_IO_new_file_fopen+0x8c>
    d970:	e38cc702 	orr	ip, ip, #524288	; 0x80000
    d974:	eaffff62 	b	d704 <_IO_new_file_fopen+0xa4>
    d978:	e38cc080 	orr	ip, ip, #128	; 0x80
    d97c:	e1a04002 	mov	r4, r2
    d980:	eafffff5 	b	d95c <_IO_new_file_fopen+0x2fc>
    d984:	e3a0c000 	mov	ip, #0	; 0x0
    d988:	e1a0e00c 	mov	lr, ip
    d98c:	e3a00008 	mov	r0, #8	; 0x8
    d990:	eaffff50 	b	d6d8 <_IO_new_file_fopen+0x78>
    d994:	e3a00a01 	mov	r0, #4096	; 0x1000
    d998:	e2800004 	add	r0, r0, #4	; 0x4
    d99c:	e3a0cd11 	mov	ip, #1088	; 0x440
    d9a0:	e3a0e001 	mov	lr, #1	; 0x1
    d9a4:	eaffff4b 	b	d6d8 <_IO_new_file_fopen+0x78>
    d9a8:	e2888001 	add	r8, r8, #1	; 0x1
    d9ac:	e3580003 	cmp	r8, #3	; 0x3
    d9b0:	0affff9a 	beq	d820 <_IO_new_file_fopen+0x1c0>
    d9b4:	e4c01001 	strb	r1, [r0], #1
    d9b8:	eaffff83 	b	d7cc <_IO_new_file_fopen+0x16c>
    d9bc:	e3530063 	cmp	r3, #99	; 0x63
    d9c0:	1affffe5 	bne	d95c <_IO_new_file_fopen+0x2fc>
    d9c4:	e597303c 	ldr	r3, [r7, #60]
    d9c8:	e3833002 	orr	r3, r3, #2	; 0x2
    d9cc:	e587303c 	str	r3, [r7, #60]
    d9d0:	eaffff4b 	b	d704 <_IO_new_file_fopen+0xa4>
    d9d4:	e353002b 	cmp	r3, #43	; 0x2b
    d9d8:	02000a01 	andeq	r0, r0, #4096	; 0x1000
    d9dc:	01a04002 	moveq	r4, r2
    d9e0:	03a0e002 	moveq	lr, #2	; 0x2
    d9e4:	eaffffdc 	b	d95c <_IO_new_file_fopen+0x2fc>
    d9e8:	e1a00007 	mov	r0, r7
    d9ec:	ebfffec3 	bl	d500 <_IO_new_file_close_it>
    d9f0:	e59f306c 	ldr	r3, [pc, #108]	; da64 <_IO_new_file_fopen+0x404>
    d9f4:	ebffed2d 	bl	8eb0 <__aeabi_read_tp>
    d9f8:	e79f3003 	ldr	r3, [pc, r3]
    d9fc:	e3a02016 	mov	r2, #22	; 0x16
    da00:	e7802003 	str	r2, [r0, r3]
    da04:	e3a06000 	mov	r6, #0	; 0x0
    da08:	e1a0d009 	mov	sp, r9
    da0c:	eaffff1c 	b	d684 <_IO_new_file_fopen+0x24>
    da10:	e1a00005 	mov	r0, r5
    da14:	e3a02001 	mov	r2, #1	; 0x1
    da18:	eaffff7a 	b	d808 <_IO_new_file_fopen+0x1a8>
    da1c:	e3a02e17 	mov	r2, #368	; 0x170
    da20:	e2822001 	add	r2, r2, #1	; 0x1
    da24:	e59f003c 	ldr	r0, [pc, #60]	; da68 <_IO_new_file_fopen+0x408>
    da28:	e59f103c 	ldr	r1, [pc, #60]	; da6c <_IO_new_file_fopen+0x40c>
    da2c:	e59f303c 	ldr	r3, [pc, #60]	; da70 <_IO_new_file_fopen+0x410>
    da30:	eb00587d 	bl	23c2c <__assert_fail>
    da34:	e59f0038 	ldr	r0, [pc, #56]	; da74 <_IO_new_file_fopen+0x414>
    da38:	e59f102c 	ldr	r1, [pc, #44]	; da6c <_IO_new_file_fopen+0x40c>
    da3c:	e3a02e17 	mov	r2, #368	; 0x170
    da40:	e59f3028 	ldr	r3, [pc, #40]	; da70 <_IO_new_file_fopen+0x410>
    da44:	eb005878 	bl	23c2c <__assert_fail>
    da48:	e1a0d009 	mov	sp, r9
    da4c:	eb0159c8 	bl	64174 <_Unwind_Resume>
    da50:	00075a24 	.word	0x00075a24
    da54:	000663dc 	.word	0x000663dc
    da58:	00073c64 	.word	0x00073c64
    da5c:	00075530 	.word	0x00075530
    da60:	0007551c 	.word	0x0007551c
    da64:	000756e4 	.word	0x000756e4
    da68:	00066408 	.word	0x00066408
    da6c:	000663fc 	.word	0x000663fc
    da70:	00066420 	.word	0x00066420
    da74:	000663e4 	.word	0x000663e4

0000da78 <_IO_least_marker>:
    da78:	e5902030 	ldr	r2, [r0, #48]
    da7c:	e590300c 	ldr	r3, [r0, #12]
    da80:	e3520000 	cmp	r2, #0	; 0x0
    da84:	e0630001 	rsb	r0, r3, r1
    da88:	012fff1e 	bxeq	lr
    da8c:	e5923008 	ldr	r3, [r2, #8]
    da90:	e5922000 	ldr	r2, [r2]
    da94:	e1500003 	cmp	r0, r3
    da98:	a1a00003 	movge	r0, r3
    da9c:	e3520000 	cmp	r2, #0	; 0x0
    daa0:	1afffff9 	bne	da8c <_IO_least_marker+0x14>
    daa4:	e12fff1e 	bx	lr

0000daa8 <_IO_switch_to_main_get_area>:
    daa8:	e5903000 	ldr	r3, [r0]
    daac:	e590c024 	ldr	ip, [r0, #36]
    dab0:	e590202c 	ldr	r2, [r0, #44]
    dab4:	e590100c 	ldr	r1, [r0, #12]
    dab8:	e52d4004 	push	{r4}		; (str r4, [sp, #-4]!)
    dabc:	e5904008 	ldr	r4, [r0, #8]
    dac0:	e3c33c01 	bic	r3, r3, #256	; 0x100
    dac4:	e8801008 	stm	r0, {r3, ip}
    dac8:	e5802008 	str	r2, [r0, #8]
    dacc:	e580402c 	str	r4, [r0, #44]
    dad0:	e5801024 	str	r1, [r0, #36]
    dad4:	e580c00c 	str	ip, [r0, #12]
    dad8:	e8bd0010 	pop	{r4}
    dadc:	e12fff1e 	bx	lr

0000dae0 <_IO_switch_to_backup_area>:
    dae0:	e5903000 	ldr	r3, [r0]
    dae4:	e590c02c 	ldr	ip, [r0, #44]
    dae8:	e5901008 	ldr	r1, [r0, #8]
    daec:	e5902024 	ldr	r2, [r0, #36]
    daf0:	e52d4004 	push	{r4}		; (str r4, [sp, #-4]!)
    daf4:	e590400c 	ldr	r4, [r0, #12]
    daf8:	e3833c01 	orr	r3, r3, #256	; 0x100
    dafc:	e8801008 	stm	r0, {r3, ip}
    db00:	e580102c 	str	r1, [r0, #44]
    db04:	e580200c 	str	r2, [r0, #12]
    db08:	e5804024 	str	r4, [r0, #36]
    db0c:	e580c008 	str	ip, [r0, #8]
    db10:	e8bd0010 	pop	{r4}
    db14:	e12fff1e 	bx	lr

0000db18 <_IO_switch_to_get_mode>:
    db18:	e5901014 	ldr	r1, [r0, #20]
    db1c:	e5903010 	ldr	r3, [r0, #16]
    db20:	e1510003 	cmp	r1, r3
    db24:	e92d4010 	push	{r4, lr}
    db28:	e1a04000 	mov	r4, r0
    db2c:	8a000013 	bhi	db80 <_IO_switch_to_get_mode+0x68>
    db30:	e5940000 	ldr	r0, [r4]
    db34:	e3100c01 	tst	r0, #256	; 0x100
    db38:	15943028 	ldrne	r3, [r4, #40]
    db3c:	1584300c 	strne	r3, [r4, #12]
    db40:	0a000008 	beq	db68 <_IO_switch_to_get_mode+0x50>
    db44:	e3c03b02 	bic	r3, r0, #2048	; 0x800
    db48:	e5843000 	str	r3, [r4]
    db4c:	e5841010 	str	r1, [r4, #16]
    db50:	e5841004 	str	r1, [r4, #4]
    db54:	e5841018 	str	r1, [r4, #24]
    db58:	e5841014 	str	r1, [r4, #20]
    db5c:	e3a00000 	mov	r0, #0	; 0x0
    db60:	e8bd4010 	pop	{r4, lr}
    db64:	e12fff1e 	bx	lr
    db68:	e5943008 	ldr	r3, [r4, #8]
    db6c:	e594201c 	ldr	r2, [r4, #28]
    db70:	e1510003 	cmp	r1, r3
    db74:	e584200c 	str	r2, [r4, #12]
    db78:	85841008 	strhi	r1, [r4, #8]
    db7c:	eafffff0 	b	db44 <_IO_switch_to_get_mode+0x2c>
    db80:	e5903098 	ldr	r3, [r0, #152]
    db84:	e3e01000 	mvn	r1, #0	; 0x0
    db88:	e593c00c 	ldr	ip, [r3, #12]
    db8c:	e1a0e00f 	mov	lr, pc
    db90:	e12fff1c 	bx	ip
    db94:	e3700001 	cmn	r0, #1	; 0x1
    db98:	0afffff0 	beq	db60 <_IO_switch_to_get_mode+0x48>
    db9c:	e5941014 	ldr	r1, [r4, #20]
    dba0:	eaffffe2 	b	db30 <_IO_switch_to_get_mode+0x18>

0000dba4 <__overflow>:
    dba4:	e590306c 	ldr	r3, [r0, #108]
    dba8:	e3530000 	cmp	r3, #0	; 0x0
    dbac:	02433001 	subeq	r3, r3, #1	; 0x1
    dbb0:	e1a02000 	mov	r2, r0
    dbb4:	0580306c 	streq	r3, [r0, #108]
    dbb8:	e92d4010 	push	{r4, lr}
    dbbc:	e5923098 	ldr	r3, [r2, #152]
    dbc0:	e593c00c 	ldr	ip, [r3, #12]
    dbc4:	e1a0e00f 	mov	lr, pc
    dbc8:	e12fff1c 	bx	ip
    dbcc:	e8bd4010 	pop	{r4, lr}
    dbd0:	e12fff1e 	bx	lr

0000dbd4 <_IO_default_underflow>:
    dbd4:	e3e00000 	mvn	r0, #0	; 0x0
    dbd8:	e12fff1e 	bx	lr

0000dbdc <_IO_default_uflow>:
    dbdc:	e5903098 	ldr	r3, [r0, #152]
    dbe0:	e92d4010 	push	{r4, lr}
    dbe4:	e1a04000 	mov	r4, r0
    dbe8:	e593c010 	ldr	ip, [r3, #16]
    dbec:	e1a0e00f 	mov	lr, pc
    dbf0:	e12fff1c 	bx	ip
    dbf4:	e3700001 	cmn	r0, #1	; 0x1
    dbf8:	15943004 	ldrne	r3, [r4, #4]
    dbfc:	14d30001 	ldrbne	r0, [r3], #1
    dc00:	15843004 	strne	r3, [r4, #4]
    dc04:	e8bd4010 	pop	{r4, lr}
    dc08:	e12fff1e 	bx	lr

0000dc0c <_IO_sgetn>:
    dc0c:	e92d4010 	push	{r4, lr}
    dc10:	e5903098 	ldr	r3, [r0, #152]
    dc14:	e593c020 	ldr	ip, [r3, #32]
    dc18:	e1a0e00f 	mov	lr, pc
    dc1c:	e12fff1c 	bx	ip
    dc20:	e8bd4010 	pop	{r4, lr}
    dc24:	e12fff1e 	bx	lr

0000dc28 <_IO_default_seekpos>:
    dc28:	e92d4010 	push	{r4, lr}
    dc2c:	e24dd008 	sub	sp, sp, #8	; 0x8
    dc30:	e59d4010 	ldr	r4, [sp, #16]
    dc34:	e3a01000 	mov	r1, #0	; 0x0
    dc38:	e590c098 	ldr	ip, [r0, #152]
    dc3c:	e88d0012 	stm	sp, {r1, r4}
    dc40:	e59cc024 	ldr	ip, [ip, #36]
    dc44:	e1a0e00f 	mov	lr, pc
    dc48:	e12fff1c 	bx	ip
    dc4c:	e28dd008 	add	sp, sp, #8	; 0x8
    dc50:	e8bd4010 	pop	{r4, lr}
    dc54:	e12fff1e 	bx	lr

0000dc58 <_IO_old_init>:
    dc58:	e590c048 	ldr	ip, [r0, #72]
    dc5c:	e3a03000 	mov	r3, #0	; 0x0
    dc60:	e35c0000 	cmp	ip, #0	; 0x0
    dc64:	e580303c 	str	r3, [r0, #60]
    dc68:	e1c034b4 	strh	r3, [r0, #68]
    dc6c:	e580301c 	str	r3, [r0, #28]
    dc70:	e5803020 	str	r3, [r0, #32]
    dc74:	e580300c 	str	r3, [r0, #12]
    dc78:	e5803004 	str	r3, [r0, #4]
    dc7c:	e5803008 	str	r3, [r0, #8]
    dc80:	e5803010 	str	r3, [r0, #16]
    dc84:	e5803014 	str	r3, [r0, #20]
    dc88:	e5803018 	str	r3, [r0, #24]
    dc8c:	e5803034 	str	r3, [r0, #52]
    dc90:	e5803024 	str	r3, [r0, #36]
    dc94:	e5803028 	str	r3, [r0, #40]
    dc98:	e580302c 	str	r3, [r0, #44]
    dc9c:	e5803030 	str	r3, [r0, #48]
    dca0:	e38114fb 	orr	r1, r1, #-83886080	; 0xfb000000
    dca4:	159f3010 	ldrne	r3, [pc, #16]	; dcbc <_IO_old_init+0x64>
    dca8:	e38118ad 	orr	r1, r1, #11337728	; 0xad0000
    dcac:	e5801000 	str	r1, [r0]
    dcb0:	18930007 	ldmne	r3, {r0, r1, r2}
    dcb4:	188c0007 	stmne	ip, {r0, r1, r2}
    dcb8:	e12fff1e 	bx	lr
    dcbc:	00066434 	.word	0x00066434

0000dcc0 <_IO_no_init>:
    dcc0:	e92d4070 	push	{r4, r5, r6, lr}
    dcc4:	e1a04002 	mov	r4, r2
    dcc8:	e1a06000 	mov	r6, r0
    dccc:	e1a05003 	mov	r5, r3
    dcd0:	ebffffe0 	bl	dc58 <_IO_old_init>
    dcd4:	e3540000 	cmp	r4, #0	; 0x0
    dcd8:	e586406c 	str	r4, [r6, #108]
    dcdc:	ba00000e 	blt	dd1c <_IO_no_init+0x5c>
    dce0:	e59d2010 	ldr	r2, [sp, #16]
    dce4:	e3a03000 	mov	r3, #0	; 0x0
    dce8:	e58520b8 	str	r2, [r5, #184]
    dcec:	e5853028 	str	r3, [r5, #40]
    dcf0:	e586505c 	str	r5, [r6, #92]
    dcf4:	e5853018 	str	r3, [r5, #24]
    dcf8:	e585301c 	str	r3, [r5, #28]
    dcfc:	e5853008 	str	r3, [r5, #8]
    dd00:	e5853000 	str	r3, [r5]
    dd04:	e5853004 	str	r3, [r5, #4]
    dd08:	e585300c 	str	r3, [r5, #12]
    dd0c:	e5853010 	str	r3, [r5, #16]
    dd10:	e5853014 	str	r3, [r5, #20]
    dd14:	e5853020 	str	r3, [r5, #32]
    dd18:	e5853024 	str	r3, [r5, #36]
    dd1c:	e3a03000 	mov	r3, #0	; 0x0
    dd20:	e5863060 	str	r3, [r6, #96]
    dd24:	e8bd4070 	pop	{r4, r5, r6, lr}
    dd28:	e12fff1e 	bx	lr

0000dd2c <_IO_init>:
    dd2c:	e52de004 	push	{lr}		; (str lr, [sp, #-4]!)
    dd30:	e3a0c000 	mov	ip, #0	; 0x0
    dd34:	e24dd00c 	sub	sp, sp, #12	; 0xc
    dd38:	e1a0300c 	mov	r3, ip
    dd3c:	e3e02000 	mvn	r2, #0	; 0x0
    dd40:	e58dc000 	str	ip, [sp]
    dd44:	ebffffdd 	bl	dcc0 <_IO_no_init>
    dd48:	e28dd00c 	add	sp, sp, #12	; 0xc
    dd4c:	e49de004 	pop	{lr}		; (ldr lr, [sp], #4)
    dd50:	e12fff1e 	bx	lr

0000dd54 <_IO_default_sync>:
    dd54:	e3a00000 	mov	r0, #0	; 0x0
    dd58:	e12fff1e 	bx	lr

0000dd5c <_IO_default_seekoff>:
    dd5c:	e3e00000 	mvn	r0, #0	; 0x0
    dd60:	e3e01000 	mvn	r1, #0	; 0x0
    dd64:	e12fff1e 	bx	lr

0000dd68 <_IO_sputbackc>:
    dd68:	e5902004 	ldr	r2, [r0, #4]
    dd6c:	e590300c 	ldr	r3, [r0, #12]
    dd70:	e1520003 	cmp	r2, r3
    dd74:	e92d4010 	push	{r4, lr}
    dd78:	e1a04000 	mov	r4, r0
    dd7c:	9a000005 	bls	dd98 <_IO_sputbackc+0x30>
    dd80:	e5520001 	ldrb	r0, [r2, #-1]
    dd84:	e20130ff 	and	r3, r1, #255	; 0xff
    dd88:	e1500003 	cmp	r0, r3
    dd8c:	e2423001 	sub	r3, r2, #1	; 0x1
    dd90:	05843004 	streq	r3, [r4, #4]
    dd94:	0a000006 	beq	ddb4 <_IO_sputbackc+0x4c>
    dd98:	e5943098 	ldr	r3, [r4, #152]
    dd9c:	e1a00004 	mov	r0, r4
    dda0:	e593c018 	ldr	ip, [r3, #24]
    dda4:	e1a0e00f 	mov	lr, pc
    dda8:	e12fff1c 	bx	ip
    ddac:	e3700001 	cmn	r0, #1	; 0x1
    ddb0:	0a000002 	beq	ddc0 <_IO_sputbackc+0x58>
    ddb4:	e5943000 	ldr	r3, [r4]
    ddb8:	e3c33010 	bic	r3, r3, #16	; 0x10
    ddbc:	e5843000 	str	r3, [r4]
    ddc0:	e8bd4010 	pop	{r4, lr}
    ddc4:	e12fff1e 	bx	lr

0000ddc8 <_IO_sungetc>:
    ddc8:	e5902004 	ldr	r2, [r0, #4]
    ddcc:	e590300c 	ldr	r3, [r0, #12]
    ddd0:	e1520003 	cmp	r2, r3
    ddd4:	e92d4010 	push	{r4, lr}
    ddd8:	e1a04000 	mov	r4, r0
    dddc:	9a000007 	bls	de00 <_IO_sungetc+0x38>
    dde0:	e2423001 	sub	r3, r2, #1	; 0x1
    dde4:	e5803004 	str	r3, [r0, #4]
    dde8:	e5520001 	ldrb	r0, [r2, #-1]
    ddec:	e5943000 	ldr	r3, [r4]
    ddf0:	e3c33010 	bic	r3, r3, #16	; 0x10
    ddf4:	e5843000 	str	r3, [r4]
    ddf8:	e8bd4010 	pop	{r4, lr}
    ddfc:	e12fff1e 	bx	lr
    de00:	e5903098 	ldr	r3, [r0, #152]
    de04:	e3e01000 	mvn	r1, #0	; 0x0
    de08:	e593c018 	ldr	ip, [r3, #24]
    de0c:	e1a0e00f 	mov	lr, pc
    de10:	e12fff1c 	bx	ip
    de14:	e3700001 	cmn	r0, #1	; 0x1
    de18:	0afffff6 	beq	ddf8 <_IO_sungetc+0x30>
    de1c:	eafffff2 	b	ddec <_IO_sungetc+0x24>

0000de20 <_IO_adjust_column>:
    de20:	e081c002 	add	ip, r1, r2
    de24:	e151000c 	cmp	r1, ip
    de28:	e52d4004 	push	{r4}		; (str r4, [sp, #-4]!)
    de2c:	e1a04000 	mov	r4, r0
    de30:	2a00000c 	bcs	de68 <_IO_adjust_column+0x48>
    de34:	e55c3001 	ldrb	r3, [ip, #-1]
    de38:	e24cc001 	sub	ip, ip, #1	; 0x1
    de3c:	e353000a 	cmp	r3, #10	; 0xa
    de40:	e1a0000c 	mov	r0, ip
    de44:	0a000004 	beq	de5c <_IO_adjust_column+0x3c>
    de48:	e1510000 	cmp	r1, r0
    de4c:	2a000005 	bcs	de68 <_IO_adjust_column+0x48>
    de50:	e5703001 	ldrb	r3, [r0, #-1]!
    de54:	e353000a 	cmp	r3, #10	; 0xa
    de58:	1afffffa 	bne	de48 <_IO_adjust_column+0x28>
    de5c:	e060000c 	rsb	r0, r0, ip
    de60:	e8bd0010 	pop	{r4}
    de64:	e12fff1e 	bx	lr
    de68:	e0820004 	add	r0, r2, r4
    de6c:	eafffffb 	b	de60 <_IO_adjust_column+0x40>

0000de70 <_IO_init_marker>:
    de70:	e5913000 	ldr	r3, [r1]
    de74:	e92d4070 	push	{r4, r5, r6, lr}
    de78:	e3130b02 	tst	r3, #2048	; 0x800
    de7c:	e1a05000 	mov	r5, r0
    de80:	e1a04001 	mov	r4, r1
    de84:	e5851004 	str	r1, [r5, #4]
    de88:	1a00000c 	bne	dec0 <_IO_init_marker+0x50>
    de8c:	e3130c01 	tst	r3, #256	; 0x100
    de90:	05943004 	ldreq	r3, [r4, #4]
    de94:	0594200c 	ldreq	r2, [r4, #12]
    de98:	1994000c 	ldmibne	r4, {r2, r3}
    de9c:	10423003 	subne	r3, r2, r3
    dea0:	00623003 	rsbeq	r3, r2, r3
    dea4:	15853008 	strne	r3, [r5, #8]
    dea8:	05853008 	streq	r3, [r5, #8]
    deac:	e5943030 	ldr	r3, [r4, #48]
    deb0:	e5853000 	str	r3, [r5]
    deb4:	e5845030 	str	r5, [r4, #48]
    deb8:	e8bd4070 	pop	{r4, r5, r6, lr}
    debc:	e12fff1e 	bx	lr
    dec0:	e1a00001 	mov	r0, r1
    dec4:	ebffff13 	bl	db18 <_IO_switch_to_get_mode>
    dec8:	e5943000 	ldr	r3, [r4]
    decc:	eaffffee 	b	de8c <_IO_init_marker+0x1c>

0000ded0 <_IO_remove_marker>:
    ded0:	e5903004 	ldr	r3, [r0, #4]
    ded4:	e5932030 	ldr	r2, [r3, #48]
    ded8:	e3520000 	cmp	r2, #0	; 0x0
    dedc:	012fff1e 	bxeq	lr
    dee0:	e1500002 	cmp	r0, r2
    dee4:	02831030 	addeq	r1, r3, #48	; 0x30
    dee8:	1a000002 	bne	def8 <_IO_remove_marker+0x28>
    deec:	ea000006 	b	df0c <_IO_remove_marker+0x3c>
    def0:	e1500002 	cmp	r0, r2
    def4:	0a000004 	beq	df0c <_IO_remove_marker+0x3c>
    def8:	e1a01002 	mov	r1, r2
    defc:	e5922000 	ldr	r2, [r2]
    df00:	e3520000 	cmp	r2, #0	; 0x0
    df04:	1afffff9 	bne	def0 <_IO_remove_marker+0x20>
    df08:	e12fff1e 	bx	lr
    df0c:	e5903000 	ldr	r3, [r0]
    df10:	e5813000 	str	r3, [r1]
    df14:	e12fff1e 	bx	lr

0000df18 <_IO_marker_difference>:
    df18:	e5903008 	ldr	r3, [r0, #8]
    df1c:	e5910008 	ldr	r0, [r1, #8]
    df20:	e0600003 	rsb	r0, r0, r3
    df24:	e12fff1e 	bx	lr

0000df28 <_IO_marker_delta>:
    df28:	e5901004 	ldr	r1, [r0, #4]
    df2c:	e3510000 	cmp	r1, #0	; 0x0
    df30:	e1a0c000 	mov	ip, r0
    df34:	03e00000 	mvneq	r0, #0	; 0x0
    df38:	012fff1e 	bxeq	lr
    df3c:	e5913000 	ldr	r3, [r1]
    df40:	e3130c01 	tst	r3, #256	; 0x100
    df44:	05913004 	ldreq	r3, [r1, #4]
    df48:	0591200c 	ldreq	r2, [r1, #12]
    df4c:	19910009 	ldmibne	r1, {r0, r3}
    df50:	10400003 	subne	r0, r0, r3
    df54:	00620003 	rsbeq	r0, r2, r3
    df58:	e59c3008 	ldr	r3, [ip, #8]
    df5c:	e0600003 	rsb	r0, r0, r3
    df60:	e12fff1e 	bx	lr

0000df64 <_IO_seekmark>:
    df64:	e591c004 	ldr	ip, [r1, #4]
    df68:	e15c0000 	cmp	ip, r0
    df6c:	e52d4004 	push	{r4}		; (str r4, [sp, #-4]!)
    df70:	13e00000 	mvnne	r0, #0	; 0x0
    df74:	e1a04001 	mov	r4, r1
    df78:	0a000001 	beq	df84 <_IO_seekmark+0x20>
    df7c:	e8bd0010 	pop	{r4}
    df80:	e12fff1e 	bx	lr
    df84:	e5912008 	ldr	r2, [r1, #8]
    df88:	e3520000 	cmp	r2, #0	; 0x0
    df8c:	ba000013 	blt	dfe0 <_IO_seekmark+0x7c>
    df90:	e59c3000 	ldr	r3, [ip]
    df94:	e3130c01 	tst	r3, #256	; 0x100
    df98:	059c000c 	ldreq	r0, [ip, #12]
    df9c:	0a00000b 	beq	dfd0 <_IO_seekmark+0x6c>
    dfa0:	e3c33c01 	bic	r3, r3, #256	; 0x100
    dfa4:	e59c0024 	ldr	r0, [ip, #36]
    dfa8:	e59c200c 	ldr	r2, [ip, #12]
    dfac:	e58c3000 	str	r3, [ip]
    dfb0:	e59c1008 	ldr	r1, [ip, #8]
    dfb4:	e59c302c 	ldr	r3, [ip, #44]
    dfb8:	e58c2024 	str	r2, [ip, #36]
    dfbc:	e58c3008 	str	r3, [ip, #8]
    dfc0:	e58c102c 	str	r1, [ip, #44]
    dfc4:	e58c000c 	str	r0, [ip, #12]
    dfc8:	e58c0004 	str	r0, [ip, #4]
    dfcc:	e5942008 	ldr	r2, [r4, #8]
    dfd0:	e0803002 	add	r3, r0, r2
    dfd4:	e58c3004 	str	r3, [ip, #4]
    dfd8:	e3a00000 	mov	r0, #0	; 0x0
    dfdc:	eaffffe6 	b	df7c <_IO_seekmark+0x18>
    dfe0:	e59c3000 	ldr	r3, [ip]
    dfe4:	e3130c01 	tst	r3, #256	; 0x100
    dfe8:	159c0008 	ldrne	r0, [ip, #8]
    dfec:	1afffff7 	bne	dfd0 <_IO_seekmark+0x6c>
    dff0:	e3833c01 	orr	r3, r3, #256	; 0x100
    dff4:	e59c002c 	ldr	r0, [ip, #44]
    dff8:	e59c2008 	ldr	r2, [ip, #8]
    dffc:	e58c3000 	str	r3, [ip]
    e000:	e59c100c 	ldr	r1, [ip, #12]
    e004:	e59c3024 	ldr	r3, [ip, #36]
    e008:	e58c202c 	str	r2, [ip, #44]
    e00c:	e58c300c 	str	r3, [ip, #12]
    e010:	e58c1024 	str	r1, [ip, #36]
    e014:	e58c0008 	str	r0, [ip, #8]
    e018:	e58c0004 	str	r0, [ip, #4]
    e01c:	e5942008 	ldr	r2, [r4, #8]
    e020:	eaffffea 	b	dfd0 <_IO_seekmark+0x6c>

0000e024 <_IO_default_seek>:
    e024:	e3e00000 	mvn	r0, #0	; 0x0
    e028:	e3e01000 	mvn	r1, #0	; 0x0
    e02c:	e12fff1e 	bx	lr

0000e030 <_IO_default_stat>:
    e030:	e3e00000 	mvn	r0, #0	; 0x0
    e034:	e12fff1e 	bx	lr

0000e038 <_IO_default_read>:
    e038:	e3e00000 	mvn	r0, #0	; 0x0
    e03c:	e12fff1e 	bx	lr

0000e040 <_IO_default_write>:
    e040:	e3a00000 	mov	r0, #0	; 0x0
    e044:	e12fff1e 	bx	lr

0000e048 <_IO_default_showmanyc>:
    e048:	e3e00000 	mvn	r0, #0	; 0x0
    e04c:	e12fff1e 	bx	lr

0000e050 <_IO_default_imbue>:
    e050:	e12fff1e 	bx	lr

0000e054 <_IO_iter_begin>:
    e054:	e59f3004 	ldr	r3, [pc, #4]	; e060 <_IO_iter_begin+0xc>
    e058:	e5930000 	ldr	r0, [r3]
    e05c:	e12fff1e 	bx	lr
    e060:	00083308 	.word	0x00083308

0000e064 <_IO_iter_end>:
    e064:	e3a00000 	mov	r0, #0	; 0x0
    e068:	e12fff1e 	bx	lr

0000e06c <_IO_iter_next>:
    e06c:	e5900034 	ldr	r0, [r0, #52]
    e070:	e12fff1e 	bx	lr

0000e074 <_IO_iter_file>:
    e074:	e12fff1e 	bx	lr

0000e078 <_IO_list_resetlock>:
    e078:	e59f300c 	ldr	r3, [pc, #12]	; e08c <_IO_list_resetlock+0x14>
    e07c:	e59fc00c 	ldr	ip, [pc, #12]	; e090 <_IO_list_resetlock+0x18>
    e080:	e8930007 	ldm	r3, {r0, r1, r2}
    e084:	e88c0007 	stm	ip, {r0, r1, r2}
    e088:	e12fff1e 	bx	lr
    e08c:	00066440 	.word	0x00066440
    e090:	00084094 	.word	0x00084094

0000e094 <_IO_setb>:
    e094:	e92d41f0 	push	{r4, r5, r6, r7, r8, lr}
    e098:	e1a04000 	mov	r4, r0
    e09c:	e590001c 	ldr	r0, [r0, #28]
    e0a0:	e3500000 	cmp	r0, #0	; 0x0
    e0a4:	e1a06001 	mov	r6, r1
    e0a8:	e1a07002 	mov	r7, r2
    e0ac:	e1a05003 	mov	r5, r3
    e0b0:	0a000012 	beq	e100 <_IO_setb+0x6c>
    e0b4:	e5943000 	ldr	r3, [r4]
    e0b8:	e3130001 	tst	r3, #1	; 0x1
    e0bc:	0a000008 	beq	e0e4 <_IO_setb+0x50>
    e0c0:	e3550000 	cmp	r5, #0	; 0x0
    e0c4:	13c33001 	bicne	r3, r3, #1	; 0x1
    e0c8:	03833001 	orreq	r3, r3, #1	; 0x1
    e0cc:	e584601c 	str	r6, [r4, #28]
    e0d0:	e5847020 	str	r7, [r4, #32]
    e0d4:	15843000 	strne	r3, [r4]
    e0d8:	05843000 	streq	r3, [r4]
    e0dc:	e8bd41f0 	pop	{r4, r5, r6, r7, r8, lr}
    e0e0:	e12fff1e 	bx	lr
    e0e4:	e5941020 	ldr	r1, [r4, #32]
    e0e8:	e2811eff 	add	r1, r1, #4080	; 0xff0
    e0ec:	e281100f 	add	r1, r1, #15	; 0xf
    e0f0:	e0601001 	rsb	r1, r0, r1
    e0f4:	e3c11eff 	bic	r1, r1, #4080	; 0xff0
    e0f8:	e3c1100f 	bic	r1, r1, #15	; 0xf
    e0fc:	eb002713 	bl	17d50 <__munmap>
    e100:	e5943000 	ldr	r3, [r4]
    e104:	eaffffed 	b	e0c0 <_IO_setb+0x2c>

0000e108 <_IO_default_setbuf>:
    e108:	e92d4070 	push	{r4, r5, r6, lr}
    e10c:	e5903098 	ldr	r3, [r0, #152]
    e110:	e1a04000 	mov	r4, r0
    e114:	e1a05001 	mov	r5, r1
    e118:	e1a06002 	mov	r6, r2
    e11c:	e593c030 	ldr	ip, [r3, #48]
    e120:	e1a0e00f 	mov	lr, pc
    e124:	e12fff1c 	bx	ip
    e128:	e3700001 	cmn	r0, #1	; 0x1
    e12c:	03a04000 	moveq	r4, #0	; 0x0
    e130:	0a000013 	beq	e184 <_IO_default_setbuf+0x7c>
    e134:	e3560000 	cmp	r6, #0	; 0x0
    e138:	13550000 	cmpne	r5, #0	; 0x0
    e13c:	13a00000 	movne	r0, #0	; 0x0
    e140:	03a00001 	moveq	r0, #1	; 0x1
    e144:	0a000011 	beq	e190 <_IO_default_setbuf+0x88>
    e148:	e5943000 	ldr	r3, [r4]
    e14c:	e3c33002 	bic	r3, r3, #2	; 0x2
    e150:	e5843000 	str	r3, [r4]
